 OpenH264

 Timestamp is 5fb59714 (Wed Nov 18 13:50:12 2020)

 Preferred load address is 0000000180000000

 Start         Length     Name                   Class
 0001:00000000 000606e0H .text$mn                CODE
 0001:000606e0 00000040H .text$mn$00             CODE
 0001:00060720 000001bdH .text$x                 CODE
 0002:00000000 00000328H .idata$5                DATA
 0002:00000328 00000028H .00cfg                  DATA
 0002:00000350 00000008H .CRT$XCA                DATA
 0002:00000358 00000008H .CRT$XCZ                DATA
 0002:00000360 00000008H .CRT$XIA                DATA
 0002:00000368 00000008H .CRT$XIZ                DATA
 0002:00000370 00000008H .CRT$XPA                DATA
 0002:00000378 00000008H .CRT$XPZ                DATA
 0002:00000380 00000008H .CRT$XTA                DATA
 0002:00000388 00000008H .CRT$XTZ                DATA
 0002:00000390 00000000H .gehcont$y              DATA
 0002:00000390 00000000H .gfids$y                DATA
 0002:00000390 0000e580H .rdata                  DATA
 0002:0000e910 000004e4H .rdata$r                DATA
 0002:0000edf4 0000034cH .rdata$zzzdbg           DATA
 0002:0000f140 00000008H .rtc$IAA                DATA
 0002:0000f148 00000100H .rtc$IMZ                DATA
 0002:0000f248 00000008H .rtc$IZZ                DATA
 0002:0000f250 00000008H .rtc$TAA                DATA
 0002:0000f258 00000100H .rtc$TMZ                DATA
 0002:0000f358 00000008H .rtc$TZZ                DATA
 0002:0000f360 00002a60H .xdata                  DATA
 0002:00011dc0 000000f0H .xdata$x                DATA
 0002:00011eb0 00000374H .edata                  DATA
 0002:00012224 00000050H .idata$2                DATA
 0002:00012274 00000014H .idata$3                DATA
 0002:00012288 00000328H .idata$4                DATA
 0002:000125b0 00000764H .idata$6                DATA
 0003:00000000 00000070H .data                   DATA
 0003:00000070 000001b0H .data$r                 DATA
 0003:00000220 00000634H .bss                    DATA
 0004:00000000 00001ddcH .pdata                  DATA
 0005:00000000 000002c1H .msvcjmc                DATA
 0006:00000000 00000060H .rsrc$01                DATA
 0006:00000060 00000180H .rsrc$02                DATA

  Address         Publics by Value              Rva+Base               Lib:Object

 0000:00000000       ___safe_se_handler_count   0000000000000000     <absolute>
 0000:00000000       __AbsoluteZero             0000000000000000     <absolute>
 0000:00000000       __arm64x_redirection_metadata 0000000000000000     <absolute>
 0000:00000000       __guard_eh_cont_count      0000000000000000     <absolute>
 0000:00000000       __x64_code_ranges_to_entry_points 0000000000000000     <absolute>
 0000:00000000       __dynamic_value_reloc_table 0000000000000000     <absolute>
 0000:00000000       __arm64x_redirection_metadata_count 0000000000000000     <absolute>
 0000:00000000       __hybrid_code_map_count    0000000000000000     <absolute>
 0000:00000000       __enclave_config           0000000000000000     <absolute>
 0000:00000000       __arm64x_native_entrypoint 0000000000000000     <absolute>
 0000:00000000       __volatile_metadata        0000000000000000     <absolute>
 0000:00000000       ___safe_se_handler_table   0000000000000000     <absolute>
 0000:00000000       __guard_longjmp_table      0000000000000000     <absolute>
 0000:00000000       __arm64x_extra_rfe_table_size 0000000000000000     <absolute>
 0000:00000000       __guard_eh_cont_table      0000000000000000     <absolute>
 0000:00000000       __guard_fids_table         0000000000000000     <absolute>
 0000:00000000       __guard_iat_count          0000000000000000     <absolute>
 0000:00000000       __hybrid_auxiliary_iat     0000000000000000     <absolute>
 0000:00000000       __guard_fids_count         0000000000000000     <absolute>
 0000:00000000       __hybrid_code_map          0000000000000000     <absolute>
 0000:00000000       __guard_iat_table          0000000000000000     <absolute>
 0000:00000000       __x64_code_ranges_to_entry_points_count 0000000000000000     <absolute>
 0000:00000000       __arm64x_extra_rfe_table   0000000000000000     <absolute>
 0000:00000000       __guard_longjmp_count      0000000000000000     <absolute>
 0000:00000100       __guard_flags              0000000000000100     <absolute>
 0000:00000000       __ImageBase                0000000180000000     <linker-defined>
 0001:00000000       __JustMyCode_Default       0000000180001000 f i common_tables.obj
 0001:00000010       ?WelsCopy16x16_c@@YAXPEAEH0H@Z 0000000180001010 f   copy_mb.obj
 0001:00000110       ?WelsCopy16x8_c@@YAXPEAEH0H@Z 0000000180001110 f   copy_mb.obj
 0001:00000210       ?WelsCopy4x4_c@@YAXPEAEH0H@Z 0000000180001210 f   copy_mb.obj
 0001:00000310       ?WelsCopy4x8_c@@YAXPEAEH0H@Z 0000000180001310 f   copy_mb.obj
 0001:000003d0       ?WelsCopy8x16_c@@YAXPEAEH0H@Z 00000001800013d0 f   copy_mb.obj
 0001:000004f0       ?WelsCopy8x4_c@@YAXPEAEH0H@Z 00000001800014f0 f   copy_mb.obj
 0001:00000590       ?WelsCopy8x8_c@@YAXPEAEH0H@Z 0000000180001590 f   copy_mb.obj
 0001:000006b0       WelsCPUFeatureDetect       00000001800016b0 f   cpu.obj
 0001:00000700       WelsFclose                 0000000180001700 f   crt_util_safe_x.obj
 0001:00000750       WelsFflush                 0000000180001750 f   crt_util_safe_x.obj
 0001:000007a0       WelsFopen                  00000001800017a0 f   crt_util_safe_x.obj
 0001:00000850       WelsFseek                  0000000180001850 f   crt_util_safe_x.obj
 0001:000008c0       WelsFwrite                 00000001800018c0 f   crt_util_safe_x.obj
 0001:00000940       WelsGetMillisecond         0000000180001940 f   crt_util_safe_x.obj
 0001:00000990       WelsGetTimeOfDay           0000000180001990 f   crt_util_safe_x.obj
 0001:000009e0       WelsSnprintf               00000001800019e0 f   crt_util_safe_x.obj
 0001:00000ac0       WelsStrcat                 0000000180001ac0 f   crt_util_safe_x.obj
 0001:00000b60       WelsStrftime               0000000180001b60 f   crt_util_safe_x.obj
 0001:00000c40       WelsStrncpy                0000000180001c40 f   crt_util_safe_x.obj
 0001:00000cc0       WelsVsnprintf              0000000180001cc0 f   crt_util_safe_x.obj
 0001:00000d60       __local_stdio_printf_options 0000000180001d60 f i crt_util_safe_x.obj
 0001:00000da0       _vsnprintf_s_l             0000000180001da0 f i crt_util_safe_x.obj
 0001:00000ec0       vsnprintf_s                0000000180001ec0 f i crt_util_safe_x.obj
 0001:00000f50       ?DeblockChromaEq42_c@@YAXPEAEHHHH@Z 0000000180001f50 f   deblocking_common.obj
 0001:000011b0       ?DeblockChromaEq4H2_c@@YAXPEAEHHH@Z 00000001800021b0 f   deblocking_common.obj
 0001:00001230       ?DeblockChromaEq4H_c@@YAXPEAE0HHH@Z 0000000180002230 f   deblocking_common.obj
 0001:000012c0       ?DeblockChromaEq4V2_c@@YAXPEAEHHH@Z 00000001800022c0 f   deblocking_common.obj
 0001:00001340       ?DeblockChromaEq4V_c@@YAXPEAE0HHH@Z 0000000180002340 f   deblocking_common.obj
 0001:000013d0       ?DeblockChromaEq4_c@@YAXPEAE0HHHH@Z 00000001800023d0 f   deblocking_common.obj
 0001:00001810       ?DeblockChromaLt42_c@@YAXPEAEHHHHPEAC@Z 0000000180002810 f   deblocking_common.obj
 0001:00001b40       ?DeblockChromaLt4H2_c@@YAXPEAEHHHPEAC@Z 0000000180002b40 f   deblocking_common.obj
 0001:00001bd0       ?DeblockChromaLt4H_c@@YAXPEAE0HHHPEAC@Z 0000000180002bd0 f   deblocking_common.obj
 0001:00001c60       ?DeblockChromaLt4V2_c@@YAXPEAEHHHPEAC@Z 0000000180002c60 f   deblocking_common.obj
 0001:00001cf0       ?DeblockChromaLt4V_c@@YAXPEAE0HHHPEAC@Z 0000000180002cf0 f   deblocking_common.obj
 0001:00001d80       ?DeblockChromaLt4_c@@YAXPEAE0HHHHPEAC@Z 0000000180002d80 f   deblocking_common.obj
 0001:00002340       ?DeblockLumaEq4H_c@@YAXPEAEHHH@Z 0000000180003340 f   deblocking_common.obj
 0001:000023c0       ?DeblockLumaEq4V_c@@YAXPEAEHHH@Z 00000001800033c0 f   deblocking_common.obj
 0001:00002440       ?DeblockLumaEq4_c@@YAXPEAEHHHH@Z 0000000180003440 f   deblocking_common.obj
 0001:00002980       ?DeblockLumaLt4H_c@@YAXPEAEHHHPEAC@Z 0000000180003980 f   deblocking_common.obj
 0001:00002a10       ?DeblockLumaLt4V_c@@YAXPEAEHHHPEAC@Z 0000000180003a10 f   deblocking_common.obj
 0001:00002aa0       ?DeblockLumaLt4_c@@YAXPEAEHHHHPEAC@Z 0000000180003aa0 f   deblocking_common.obj
 0001:00003140       ?WelsNonZeroCount_c@@YAXPEAC@Z 0000000180004140 f   deblocking_common.obj
 0001:00003720       ExpandReferencingPicture   0000000180004720 f   expand_pic.obj
 0001:00003930       InitExpandPictureFunc      0000000180004930 f   expand_pic.obj
 0001:000039c0       ?WelsI16x16LumaPredH_c@@YAXPEAE0H@Z 00000001800049c0 f   intra_pred_common.obj
 0001:00003af0       ?WelsI16x16LumaPredV_c@@YAXPEAE0H@Z 0000000180004af0 f   intra_pred_common.obj
 0001:00005050       ?InitMcFunc@WelsCommon@@YAXPEAUTagMcFunc@@I@Z 0000000180006050 f   mc.obj
 0001:00005320       ?McChroma_c@WelsCommon@@YAXPEBEHPEAEHFFHH@Z 0000000180006320 f   mc.obj
 0001:00005730       ?McLuma_c@WelsCommon@@YAXPEBEHPEAEHFFHH@Z 0000000180006730 f   mc.obj
 0001:00005990       ??0CMemoryAlign@WelsCommon@@QEAA@I@Z 0000000180006990 f   memory_align.obj
 0001:00005a30       ??1CMemoryAlign@WelsCommon@@UEAA@XZ 0000000180006a30 f   memory_align.obj
 0001:00005ab0       ??_GCMemoryAlign@WelsCommon@@UEAAPEAXI@Z 0000000180006ab0 f i memory_align.obj
 0001:00005ab0       ??_ECMemoryAlign@WelsCommon@@UEAAPEAXI@Z 0000000180006ab0 f i memory_align.obj
 0001:00005b20       ?WelsFree@CMemoryAlign@WelsCommon@@QEAAXPEAXPEBD@Z 0000000180006b20 f   memory_align.obj
 0001:00005bd0       ?WelsFree@WelsCommon@@YAXPEAXPEBD@Z 0000000180006bd0 f   memory_align.obj
 0001:00005c30       ?WelsGetCacheLineSize@CMemoryAlign@WelsCommon@@QEBA?BIXZ 0000000180006c30 f   memory_align.obj
 0001:00005c80       ?WelsGetMemoryUsage@CMemoryAlign@WelsCommon@@QEBA?BIXZ 0000000180006c80 f   memory_align.obj
 0001:00005cd0       ?WelsMalloc@CMemoryAlign@WelsCommon@@QEAAPEAXIPEBD@Z 0000000180006cd0 f   memory_align.obj
 0001:00005d80       ?WelsMalloc@WelsCommon@@YAPEAXIPEBDI@Z 0000000180006d80 f   memory_align.obj
 0001:00005e90       ?WelsMallocz@CMemoryAlign@WelsCommon@@QEAAPEAXIPEBD@Z 0000000180006e90 f   memory_align.obj
 0001:00005f20       ?WelsMallocz@WelsCommon@@YAPEAXIPEBD@Z 0000000180006f20 f   memory_align.obj
 0001:00005fb0       ?WelsSampleSad16x16_c@@YAHPEAEH0H@Z 0000000180006fb0 f   sad_common.obj
 0001:00006110       ?WelsSampleSad16x8_c@@YAHPEAEH0H@Z 0000000180007110 f   sad_common.obj
 0001:000061d0       ?WelsSampleSad4x4_c@@YAHPEAEH0H@Z 00000001800071d0 f   sad_common.obj
 0001:000064a0       ?WelsSampleSad4x8_c@@YAHPEAEH0H@Z 00000001800074a0 f   sad_common.obj
 0001:00006580       ?WelsSampleSad8x16_c@@YAHPEAEH0H@Z 0000000180007580 f   sad_common.obj
 0001:00006660       ?WelsSampleSad8x4_c@@YAHPEAEH0H@Z 0000000180007660 f   sad_common.obj
 0001:00006720       ?WelsSampleSad8x8_c@@YAHPEAEH0H@Z 0000000180007720 f   sad_common.obj
 0001:00006bf0       ?WelsSampleSadFour16x16_c@@YAXPEAEH0HPEAH@Z 0000000180007bf0 f   sad_common.obj
 0001:00006d20       ?WelsSampleSadFour16x8_c@@YAXPEAEH0HPEAH@Z 0000000180007d20 f   sad_common.obj
 0001:00006e50       ?WelsSampleSadFour4x4_c@@YAXPEAEH0HPEAH@Z 0000000180007e50 f   sad_common.obj
 0001:00006f80       ?WelsSampleSadFour4x8_c@@YAXPEAEH0HPEAH@Z 0000000180007f80 f   sad_common.obj
 0001:000070b0       ?WelsSampleSadFour8x16_c@@YAXPEAEH0HPEAH@Z 00000001800080b0 f   sad_common.obj
 0001:000071e0       ?WelsSampleSadFour8x4_c@@YAXPEAEH0HPEAH@Z 00000001800081e0 f   sad_common.obj
 0001:00007310       ?WelsSampleSadFour8x8_c@@YAXPEAEH0HPEAH@Z 0000000180008310 f   sad_common.obj
 0001:00007440       ?WelsCalcPsnr@@YAMPEBXH0HHH@Z 0000000180008440 f   utils.obj
 0001:000075e0       ?WelsLog@@YAXPEAUTagLogContext@@HPEBDZZ 00000001800085e0 f   utils.obj
 0001:000077a0       ??0welsCodecTrace@@QEAA@XZ 00000001800087a0 f   welsCodecTrace.obj
 0001:00007850       ??1welsCodecTrace@@QEAA@XZ 0000000180008850 f   welsCodecTrace.obj
 0001:000078a0       ?CodecTrace@welsCodecTrace@@AEAAXHPEBDPEAD@Z 00000001800088a0 f   welsCodecTrace.obj
 0001:00007990       ?SetCodecInstance@welsCodecTrace@@QEAAXPEAX@Z 0000000180008990 f   welsCodecTrace.obj
 0001:000079f0       ?SetTraceCallback@welsCodecTrace@@QEAAXP6AXPEAXHPEBD@Z@Z 00000001800089f0 f   welsCodecTrace.obj
 0001:00007a50       ?SetTraceCallbackContext@welsCodecTrace@@QEAAXPEAX@Z 0000000180008a50 f   welsCodecTrace.obj
 0001:00007ab0       ?SetTraceLevel@welsCodecTrace@@QEAAXH@Z 0000000180008ab0 f   welsCodecTrace.obj
 0001:00007b10       ?StaticCodecTrace@welsCodecTrace@@CAXPEAXHPEBDPEAD@Z 0000000180008b10 f   welsCodecTrace.obj
 0001:00007c00       _vfprintf_l                0000000180008c00 f i welsCodecTrace.obj
 0001:00007c80       fprintf                    0000000180008c80 f i welsCodecTrace.obj
 0001:00007d40       WelsEventClose             0000000180008d40 f   WelsThreadLib.obj
 0001:00007db0       WelsEventOpen              0000000180008db0 f   WelsThreadLib.obj
 0001:00007e30       WelsEventSignal            0000000180008e30 f   WelsThreadLib.obj
 0001:00007e90       WelsEventWait              0000000180008e90 f   WelsThreadLib.obj
 0001:00007ef0       WelsEventWaitWithTimeOut   0000000180008ef0 f   WelsThreadLib.obj
 0001:00007f50       WelsMultipleEventsWaitAllBlocking 0000000180008f50 f   WelsThreadLib.obj
 0001:00007fc0       WelsMultipleEventsWaitSingleBlocking 0000000180008fc0 f   WelsThreadLib.obj
 0001:00008030       WelsMutexDestroy           0000000180009030 f   WelsThreadLib.obj
 0001:00008080       WelsMutexInit              0000000180009080 f   WelsThreadLib.obj
 0001:000080d0       WelsMutexLock              00000001800090d0 f   WelsThreadLib.obj
 0001:00008120       WelsMutexUnlock            0000000180009120 f   WelsThreadLib.obj
 0001:00008170       WelsQueryLogicalProcessInfo 0000000180009170 f   WelsThreadLib.obj
 0001:00008200       WelsThreadCreate           0000000180009200 f   WelsThreadLib.obj
 0001:000082a0       WelsThreadJoin             00000001800092a0 f   WelsThreadLib.obj
 0001:00008310       WelsThreadSelf             0000000180009310 f   WelsThreadLib.obj
 0001:00008350       WelsThreadSetName          0000000180009350 f   WelsThreadLib.obj
 0001:00009280       ?CheckAccessUnitBoundary@WelsDec@@YA_NPEAUTagWelsDecoderContext@1@QEAUTagNalUnit@1@1QEAUTagSps@1@@Z 000000018000a280 f   au_parser.obj
 0001:00009550       ?CheckAccessUnitBoundaryExt@WelsDec@@YA_NPEAUTagNalUnitHeaderExt@WelsCommon@@0PEAUTagSliceHeaders@1@1@Z 000000018000a550 f   au_parser.obj
 0001:00009920       ?CheckNextAuNewSeq@WelsDec@@YA_NPEAUTagWelsDecoderContext@1@QEAUTagNalUnit@1@QEAUTagSps@1@@Z 000000018000a920 f   au_parser.obj
 0001:000099d0       ?CheckSpsActive@WelsDec@@YA_NPEAUTagWelsDecoderContext@1@PEAUTagSps@1@_N@Z 000000018000a9d0 f   au_parser.obj
 0001:00009c80       ?DecodeSpsSvcExt@WelsDec@@YAHPEAUTagWelsDecoderContext@1@PEAUTagSubsetSps@1@PEAUTagBitStringAux@WelsCommon@@@Z 000000018000ac80 f   au_parser.obj
 0001:0000a280       ?DetectStartCodePrefix@WelsDec@@YAPEAEPEBEPEAHH@Z 000000018000b280 f   au_parser.obj
 0001:0000a460       ?GetLevelLimits@WelsDec@@YAPEBUTagLevelLimits@WelsCommon@@H_N@Z 000000018000b460 f   au_parser.obj
 0001:0000a800       ?ParseNalHeader@WelsDec@@YAPEAEPEAUTagWelsDecoderContext@1@PEAUTagNalUnitHeader@WelsCommon@@PEAEH2HPEAH@Z 000000018000b800 f   au_parser.obj
 0001:0000baa0       ?ParseNonVclNal@WelsDec@@YAHPEAUTagWelsDecoderContext@1@PEAEH1H@Z 000000018000caa0 f   au_parser.obj
 0001:0000be50       ?ParsePps@WelsDec@@YAHPEAUTagWelsDecoderContext@1@PEAUTagPps@1@PEAUTagBitStringAux@WelsCommon@@PEAEH@Z 000000018000ce50 f   au_parser.obj
 0001:0000cc60       ?ParsePrefixNalUnit@WelsDec@@YAHPEAUTagWelsDecoderContext@1@PEAUTagBitStringAux@WelsCommon@@@Z 000000018000dc60 f   au_parser.obj
 0001:0000ce90       ?ParseRefBasePicMarking@WelsDec@@YAHPEAUTagBitStringAux@WelsCommon@@PEAUTagRefBasePicMarkingSyn@1@@Z 000000018000de90 f   au_parser.obj
 0001:0000d0a0       ?ParseScalingList@WelsDec@@YAHPEAUTagSps@1@PEAUTagBitStringAux@WelsCommon@@_NPEA_NPEAY0BA@EPEAY0EA@E@Z 000000018000e0a0 f   au_parser.obj
 0001:0000d680       ?ParseSei@WelsDec@@YAHPEAXPEAUTagBitStringAux@WelsCommon@@@Z 000000018000e680 f   au_parser.obj
 0001:0000d6d0       ?ParseSps@WelsDec@@YAHPEAUTagWelsDecoderContext@1@PEAUTagBitStringAux@WelsCommon@@PEAH2PEAEH@Z 000000018000e6d0 f   au_parser.obj
 0001:0000f720       ?ResetFmoList@WelsDec@@YAHPEAUTagWelsDecoderContext@1@@Z 0000000180010720 f   au_parser.obj
 0001:0000f7e0       ?SetScalingListValue@WelsDec@@YAHPEAEHPEA_NPEAUTagBitStringAux@WelsCommon@@@Z 00000001800107e0 f   au_parser.obj
 0001:0000fa00       ?DecInitBits@WelsDec@@YAHPEAUTagBitStringAux@WelsCommon@@PEBEH@Z 0000000180010a00 f   bit_stream.obj
 0001:0000fae0       ?GetValue4Bytes@WelsDec@@YAIPEAE@Z 0000000180010ae0 f i bit_stream.obj
 0001:0000fb90       ?InitReadBits@WelsDec@@YAHPEAUTagBitStringAux@WelsCommon@@_J@Z 0000000180010b90 f   bit_stream.obj
 0001:0000fc50       ?RBSP2EBSP@WelsDec@@YAXPEAE0H@Z 0000000180010c50 f   bit_stream.obj
 0001:0000fd50       ?DecodeBinCabac@WelsDec@@YAHPEAUSWelsCabacDecEngine@1@PEAUSWels_Cabac_Element@1@AEAI@Z 0000000180010d50 f   cabac_decoder.obj
 0001:00010050       ?DecodeBypassCabac@WelsDec@@YAHPEAUSWelsCabacDecEngine@1@AEAI@Z 0000000180011050 f   cabac_decoder.obj
 0001:00010200       ?DecodeExpBypassCabac@WelsDec@@YAHPEAUSWelsCabacDecEngine@1@HAEAI@Z 0000000180011200 f   cabac_decoder.obj
 0001:000103b0       ?DecodeTerminateCabac@WelsDec@@YAHPEAUSWelsCabacDecEngine@1@AEAI@Z 00000001800113b0 f   cabac_decoder.obj
 0001:000105b0       ?DecodeUEGLevelCabac@WelsDec@@YAIPEAUSWelsCabacDecEngine@1@PEAUSWels_Cabac_Element@1@AEAI@Z 00000001800115b0 f   cabac_decoder.obj
 0001:00010750       ?DecodeUEGMvCabac@WelsDec@@YAHPEAUSWelsCabacDecEngine@1@PEAUSWels_Cabac_Element@1@IAEAI@Z 0000000180011750 f   cabac_decoder.obj
 0001:00010920       ?DecodeUnaryBinCabac@WelsDec@@YAHPEAUSWelsCabacDecEngine@1@PEAUSWels_Cabac_Element@1@HAEAI@Z 0000000180011920 f   cabac_decoder.obj
 0001:00010a70       ?InitCabacDecEngineFromBS@WelsDec@@YAHPEAUSWelsCabacDecEngine@1@PEAUTagBitStringAux@WelsCommon@@@Z 0000000180011a70 f   cabac_decoder.obj
 0001:00010c20       ?Read32BitsCabac@WelsDec@@YAHPEAUSWelsCabacDecEngine@1@AEAIAEAH@Z 0000000180011c20 f   cabac_decoder.obj
 0001:00010ed0       ?RestoreCabacDecEngineToBS@WelsDec@@YAXPEAUSWelsCabacDecEngine@1@PEAUTagBitStringAux@WelsCommon@@@Z 0000000180011ed0 f   cabac_decoder.obj
 0001:00010fb0       ?WelsCabacContextInit@WelsDec@@YAXPEAUTagWelsDecoderContext@1@EHH@Z 0000000180011fb0 f   cabac_decoder.obj
 0001:000110a0       ?WelsCabacGlobalInit@WelsDec@@YAXPEAUTagWelsDecoderContext@1@@Z 00000001800120a0 f   cabac_decoder.obj
 0001:000112d0       ?DeblockingAvailableNoInterlayer@WelsDec@@YAHPEAUTagDqLayer@1@H@Z 00000001800122d0 f   deblocking.obj
 0001:00011480       ?DeblockingBSInsideMBAvsbase8x8@WelsDec@@YAXPEACQEAY133EH@Z 0000000180012480 f i deblocking.obj
 0001:000117e0       ?DeblockingBSInsideMBAvsbase@WelsDec@@YAXPEACQEAY133EH@Z 00000001800127e0 f i deblocking.obj
 0001:000194e0       ?DeblockingBsMarginalMBAvcbase@WelsDec@@YAIPEAUTagDqLayer@1@HHH@Z 000000018001a4e0 f   deblocking.obj
 0001:0001aa50       ?DeblockingInit@WelsDec@@YAXPEAUTagDeblockingFunc@1@H@Z 000000018001ba50 f   deblocking.obj
 0001:0001ab70       ?DeblockingInterMb@WelsDec@@YAXPEAUTagDqLayer@1@PEAUtagDeblockingFilter@1@QEAY133EH@Z 000000018001bb70 f   deblocking.obj
 0001:0001b5b0       ?DeblockingIntraMb@WelsDec@@YAXPEAUTagDqLayer@1@PEAUtagDeblockingFilter@1@H@Z 000000018001c5b0 f   deblocking.obj
 0001:0001b630       ?FilteringEdgeChromaH@WelsDec@@YAXPEAUtagDeblockingFilter@1@PEAE1H1@Z 000000018001c630 f   deblocking.obj
 0001:0001bad0       ?FilteringEdgeChromaHV@WelsDec@@YAXPEAUTagDqLayer@1@PEAUtagDeblockingFilter@1@H@Z 000000018001cad0 f   deblocking.obj
 0001:0001c590       ?FilteringEdgeChromaIntraH@WelsDec@@YAXPEAUtagDeblockingFilter@1@PEAE1H1@Z 000000018001d590 f   deblocking.obj
 0001:0001c7b0       ?FilteringEdgeChromaIntraV@WelsDec@@YAXPEAUtagDeblockingFilter@1@PEAE1H1@Z 000000018001d7b0 f   deblocking.obj
 0001:0001c9d0       ?FilteringEdgeChromaV@WelsDec@@YAXPEAUtagDeblockingFilter@1@PEAE1H1@Z 000000018001d9d0 f   deblocking.obj
 0001:0001ce70       ?FilteringEdgeLumaH@WelsDec@@YAXPEAUtagDeblockingFilter@1@PEAEH1@Z 000000018001de70 f   deblocking.obj
 0001:0001d0a0       ?FilteringEdgeLumaHV@WelsDec@@YAXPEAUTagDqLayer@1@PEAUtagDeblockingFilter@1@H@Z 000000018001e0a0 f   deblocking.obj
 0001:0001d6f0       ?FilteringEdgeLumaIntraH@WelsDec@@YAXPEAUtagDeblockingFilter@1@PEAEH1@Z 000000018001e6f0 f   deblocking.obj
 0001:0001d7d0       ?FilteringEdgeLumaIntraV@WelsDec@@YAXPEAUtagDeblockingFilter@1@PEAEH1@Z 000000018001e7d0 f   deblocking.obj
 0001:0001d8b0       ?FilteringEdgeLumaV@WelsDec@@YAXPEAUtagDeblockingFilter@1@PEAEH1@Z 000000018001e8b0 f   deblocking.obj
 0001:0001dae0       ?WelsDeblockingFilterSlice@WelsDec@@YAXPEAUTagWelsDecoderContext@1@P6AXPEAUTagDqLayer@1@PEAUtagDeblockingFilter@1@H@Z@Z 000000018001eae0 f   deblocking.obj
 0001:0001de50       ?WelsDeblockingMb@WelsDec@@YAXPEAUTagDqLayer@1@PEAUtagDeblockingFilter@1@H@Z 000000018001ee50 f   deblocking.obj
 0001:0001f3d0       ?WelsCloseDecoder@WelsDec@@YAXPEAUTagWelsDecoderContext@1@@Z 00000001800203d0 f   decoder.obj
 0001:0001f460       ?WelsDecoderDefaults@WelsDec@@YAXPEAUTagWelsDecoderContext@1@PEAUTagLogContext@@PEAVCMemoryAlign@WelsCommon@@@Z 0000000180020460 f   decoder.obj
 0001:0001f770       ?WelsOpenDecoder@WelsDec@@YAHPEAUTagWelsDecoderContext@1@@Z 0000000180020770 f   decoder.obj
 0001:0001f880       AssignFuncPointerForRec    0000000180020880 f   decoder.obj
 0001:0001fe40       DecoderConfigParam         0000000180020e40 f   decoder.obj
 0001:00020020       DecoderSetCsp              0000000180021020 f   decoder.obj
 0001:00020130       DestroyPicBuff             0000000180021130 f   decoder.obj
 0001:00020270       GetVclNalTemporalId        0000000180021270 f   decoder.obj
 0001:00020300       ResetDecStatNums           0000000180021300 f   decoder.obj
 0001:000203a0       SyncPictureResolutionExt   00000001800213a0 f   decoder.obj
 0001:000204e0       UpdateDecStat              00000001800214e0 f   decoder.obj
 0001:00020580       UpdateDecStatFreezingInfo  0000000180021580 f   decoder.obj
 0001:00020600       UpdateDecStatNoFreezingInfo 0000000180021600 f   decoder.obj
 0001:000207d0       WelsDecodeBs               00000001800217d0 f   decoder.obj
 0001:00021130       WelsEndDecoder             0000000180022130 f   decoder.obj
 0001:00021180       WelsFreeMem                0000000180022180 f   decoder.obj
 0001:000212c0       WelsInitDecoder            00000001800222c0 f   decoder.obj
 0001:00021360       WelsRequestMem             0000000180022360 f   decoder.obj
 0001:00022090       ?CheckAndFinishLastPic@WelsDec@@YA_NPEAUTagWelsDecoderContext@1@PEAPEAEPEAUTagBufferInfo@@@Z 0000000180023090 f   decoder_core.obj
 0001:00022550       ?CheckAvailNalUnitsListContinuity@WelsDec@@YAXPEAUTagWelsDecoderContext@1@HH@Z 0000000180023550 f   decoder_core.obj
 0001:00022730       ?CheckBsBuffer@WelsDec@@YAHPEAUTagWelsDecoderContext@1@H@Z 0000000180023730 f   decoder_core.obj
 0001:00022810       ?CheckIntegrityNalUnitsList@WelsDec@@YA_NPEAUTagWelsDecoderContext@1@@Z 0000000180023810 f   decoder_core.obj
 0001:00022ed0       ?CheckOnlyOneLayerInAu@WelsDec@@YAXPEAUTagWelsDecoderContext@1@@Z 0000000180023ed0 f   decoder_core.obj
 0001:00023050       ?CheckPocOfCurValidNalUnits@WelsDec@@YA_NPEAUTagAccessUnits@1@H@Z 0000000180024050 f   decoder_core.obj
 0001:00023110       ?CheckRefPicturesComplete@WelsDec@@YA_NPEAUTagWelsDecoderContext@1@@Z 0000000180024110 f   decoder_core.obj
 0001:00023700       ?CheckSliceNeedReconstruct@WelsDec@@YA_NEE@Z 0000000180024700 f i decoder_core.obj
 0001:00023780       ?ConstructAccessUnit@WelsDec@@YAHPEAUTagWelsDecoderContext@1@PEAPEAEPEAUTagBufferInfo@@@Z 0000000180024780 f   decoder_core.obj
 0001:00023a40       ?DecodeCurrentAccessUnit@WelsDec@@YAHPEAUTagWelsDecoderContext@1@PEAPEAEPEAUTagBufferInfo@@@Z 0000000180024a40 f   decoder_core.obj
 0001:00024a90       ?DecodeFinishUpdate@WelsDec@@YAXPEAUTagWelsDecoderContext@1@@Z 0000000180025a90 f   decoder_core.obj
 0001:00025910       ?DecodeNalHeaderExt@WelsDec@@YAXPEAUTagNalUnit@1@PEAE@Z 0000000180026910 f   decoder_core.obj
 0001:00025ae0       ?ExpandBsBuffer@WelsDec@@YAHPEAUTagWelsDecoderContext@1@H@Z 0000000180026ae0 f   decoder_core.obj
 0001:00025da0       ?FillDefaultSliceHeaderExt@WelsDec@@YA_NPEAUTagSliceHeaderExt@1@PEAUTagNalUnitHeaderExt@WelsCommon@@@Z 0000000180026da0 f   decoder_core.obj
 0001:00025f70       ?ForceClearCurrentNal@WelsDec@@YAXPEAUTagAccessUnits@1@@Z 0000000180026f70 f   decoder_core.obj
 0001:00025fe0       ?ForceResetCurrentAccessUnit@WelsDec@@YAXPEAUTagAccessUnits@1@@Z 0000000180026fe0 f   decoder_core.obj
 0001:00026130       ?ForceResetParaSetStatusAndAUList@WelsDec@@YAXPEAUTagWelsDecoderContext@1@@Z 0000000180027130 f   decoder_core.obj
 0001:000262e0       ?GetTargetDqId@WelsDec@@YAEEPEAUTagSVCDecodingParam@@@Z 00000001800272e0 f i decoder_core.obj
 0001:00026390       ?HandleReferenceLost@WelsDec@@YAXPEAUTagWelsDecoderContext@1@PEAUTagNalUnit@1@@Z 0000000180027390 f i decoder_core.obj
 0001:00026420       ?HandleReferenceLostL0@WelsDec@@YAXPEAUTagWelsDecoderContext@1@PEAUTagNalUnit@1@@Z 0000000180027420 f i decoder_core.obj
 0001:000264a0       ?InitBsBuffer@WelsDec@@YAHPEAUTagWelsDecoderContext@1@@Z 00000001800274a0 f   decoder_core.obj
 0001:00026730       ?InitCurDqLayerData@WelsDec@@YAXPEAUTagWelsDecoderContext@1@PEAUTagDqLayer@1@@Z 0000000180027730 f   decoder_core.obj
 0001:00026e20       ?InitRefPicList@WelsDec@@YAHPEAUTagWelsDecoderContext@1@EH@Z 0000000180027e20 f   decoder_core.obj
 0001:00026ec0       ?InitialDqLayersContext@WelsDec@@YAHPEAUTagWelsDecoderContext@1@HH@Z 0000000180027ec0 f   decoder_core.obj
 0001:00027930       ?ParseDecRefPicMarking@WelsDec@@YAHPEAUTagWelsDecoderContext@1@PEAUTagBitStringAux@WelsCommon@@PEAUTagSliceHeaders@1@PEAUTagSps@1@_N@Z 0000000180028930 f   decoder_core.obj
 0001:00027d20       ?ParsePredWeightedTable@WelsDec@@YAHPEAUTagBitStringAux@WelsCommon@@PEAUTagSliceHeaders@1@@Z 0000000180028d20 f   decoder_core.obj
 0001:00028290       ?ParseRefPicListReordering@WelsDec@@YAHPEAUTagBitStringAux@WelsCommon@@PEAUTagSliceHeaders@1@@Z 0000000180029290 f   decoder_core.obj
 0001:000285e0       ?ParseSliceHeaderSyntaxs@WelsDec@@YAHPEAUTagWelsDecoderContext@1@PEAUTagBitStringAux@WelsCommon@@_N@Z 00000001800295e0 f   decoder_core.obj
 0001:0002a660       ?PrefetchNalHeaderExtSyntax@WelsDec@@YA_NPEAUTagWelsDecoderContext@1@QEAUTagNalUnit@1@1@Z 000000018002b660 f   decoder_core.obj
 0001:0002a900       ?RefineIdxNoInterLayerPred@WelsDec@@YAXPEAUTagAccessUnits@1@PEAH@Z 000000018002b900 f   decoder_core.obj
 0001:0002ac40       ?ResetCurrentAccessUnit@WelsDec@@YAXPEAUTagWelsDecoderContext@1@@Z 000000018002bc40 f   decoder_core.obj
 0001:0002ad80       ?UninitialDqLayersContext@WelsDec@@YAXPEAUTagWelsDecoderContext@1@@Z 000000018002bd80 f   decoder_core.obj
 0001:0002b650       ?UpdateAccessUnit@WelsDec@@YAHPEAUTagWelsDecoderContext@1@@Z 000000018002c650 f   decoder_core.obj
 0001:0002b7f0       ?WelsDecodeAccessUnitEnd@WelsDec@@YAXPEAUTagWelsDecoderContext@1@@Z 000000018002c7f0 f   decoder_core.obj
 0001:0002b8b0       ?WelsDecodeAccessUnitStart@WelsDec@@YAHPEAUTagWelsDecoderContext@1@@Z 000000018002c8b0 f   decoder_core.obj
 0001:0002b990       ?WelsDecodeConstructSlice@WelsDec@@YAHPEAUTagWelsDecoderContext@1@PEAUTagNalUnit@1@@Z 000000018002c990 f i decoder_core.obj
 0001:0002ba00       ?WelsDqLayerDecodeStart@WelsDec@@YAXPEAUTagWelsDecoderContext@1@PEAUTagNalUnit@1@PEAUTagSps@1@PEAUTagPps@1@@Z 000000018002ca00 f   decoder_core.obj
 0001:0002baa0       ?WelsFreeMemory@WelsDec@@YAXPEAUTagWelsDecoderContext@1@@Z 000000018002caa0 f   decoder_core.obj
 0001:0002bcd0       ?WelsInitMemory@WelsDec@@YAHPEAUTagWelsDecoderContext@1@@Z 000000018002ccd0 f   decoder_core.obj
 0001:0002bf40       ?GetI4LumaIChromaAddrTable@WelsDec@@YAXPEAHHH@Z 000000018002cf40 f   decode_mb_aux.obj
 0001:0002c0a0       ?IdctResAddPred8x8_c@WelsDec@@YAXPEAEHPEAF@Z 000000018002d0a0 f   decode_mb_aux.obj
 0001:0002ccb0       ?IdctResAddPred_c@WelsDec@@YAXPEAEHPEAF@Z 000000018002dcb0 f   decode_mb_aux.obj
 0001:0002da60       ?ParseIntra16x16Mode@WelsDec@@YAHPEAUTagWelsDecoderContext@1@PEAUTagNeighborAvail@1@PEAUTagBitStringAux@WelsCommon@@PEAUTagDqLayer@1@@Z 000000018002ea60 f   decode_slice.obj
 0001:0002dc90       ?ParseIntra4x4Mode@WelsDec@@YAHPEAUTagWelsDecoderContext@1@PEAUTagNeighborAvail@1@PEACPEAUTagBitStringAux@WelsCommon@@PEAUTagDqLayer@1@@Z 000000018002ec90 f   decode_slice.obj
 0001:0002e260       ?ParseIntra8x8Mode@WelsDec@@YAHPEAUTagWelsDecoderContext@1@PEAUTagNeighborAvail@1@PEACPEAUTagBitStringAux@WelsCommon@@PEAUTagDqLayer@1@@Z 000000018002f260 f   decode_slice.obj
 0001:0002e8a0       ?WelsActualDecodeMbCavlcISlice@WelsDec@@YAHPEAUTagWelsDecoderContext@1@@Z 000000018002f8a0 f   decode_slice.obj
 0001:00030250       ?WelsActualDecodeMbCavlcPSlice@WelsDec@@YAHPEAUTagWelsDecoderContext@1@@Z 0000000180031250 f   decode_slice.obj
 0001:000320c0       ?WelsBlockFuncInit@WelsDec@@YAXPEAUTagBlockFunc@1@H@Z 00000001800330c0 f   decode_slice.obj
 0001:00032140       ?WelsBlockInit@WelsDec@@YAXPEAFHHHE@Z 0000000180033140 f   decode_slice.obj
 0001:000321f0       ?WelsBlockZero16x16_c@WelsDec@@YAXPEAFH@Z 00000001800331f0 f   decode_slice.obj
 0001:00032260       ?WelsBlockZero8x8_c@WelsDec@@YAXPEAFH@Z 0000000180033260 f   decode_slice.obj
 0001:000322d0       ?WelsCalcDeqCoeffScalingList@WelsDec@@YAHPEAUTagWelsDecoderContext@1@@Z 00000001800332d0 f   decode_slice.obj
 0001:000328e0       ?WelsChromaDcIdct@WelsDec@@YAXPEAF@Z 00000001800338e0 f   decode_slice.obj
 0001:00032a70       ?WelsDecodeMbCabacISlice@WelsDec@@YAHPEAUTagWelsDecoderContext@1@PEAUTagNalUnit@1@AEAI@Z 0000000180033a70 f   decode_slice.obj
 0001:00032af0       ?WelsDecodeMbCabacISliceBaseMode0@WelsDec@@YAHPEAUTagWelsDecoderContext@1@AEAI@Z 0000000180033af0 f   decode_slice.obj
 0001:00034520       ?WelsDecodeMbCabacPSlice@WelsDec@@YAHPEAUTagWelsDecoderContext@1@PEAUTagNalUnit@1@AEAI@Z 0000000180035520 f   decode_slice.obj
 0001:00034ae0       ?WelsDecodeMbCabacPSliceBaseMode0@WelsDec@@YAHPEAUTagWelsDecoderContext@1@PEAUTagNeighborAvail@1@AEAI@Z 0000000180035ae0 f   decode_slice.obj
 0001:000366c0       ?WelsDecodeMbCavlcISlice@WelsDec@@YAHPEAUTagWelsDecoderContext@1@PEAUTagNalUnit@1@AEAI@Z 00000001800376c0 f   decode_slice.obj
 0001:000368d0       ?WelsDecodeMbCavlcPSlice@WelsDec@@YAHPEAUTagWelsDecoderContext@1@PEAUTagNalUnit@1@AEAI@Z 00000001800378d0 f   decode_slice.obj
 0001:00036f60       ?WelsDecodeSlice@WelsDec@@YAHPEAUTagWelsDecoderContext@1@_NPEAUTagNalUnit@1@@Z 0000000180037f60 f   decode_slice.obj
 0001:000374a0       ?WelsLumaDcDequantIdct@WelsDec@@YAXPEAFHPEAUTagWelsDecoderContext@1@@Z 00000001800384a0 f   decode_slice.obj
 0001:00037900       ?WelsMap16x16NeighToSampleConstrain1@WelsDec@@YAXPEAUTagNeighborAvail@1@PEAE@Z 0000000180038900 f   decode_slice.obj
 0001:000379e0       ?WelsMap16x16NeighToSampleNormal@WelsDec@@YAXPEAUTagNeighborAvail@1@PEAE@Z 00000001800389e0 f   decode_slice.obj
 0001:00037a90       ?WelsMapNxNNeighToSampleConstrain1@WelsDec@@YAXPEAUTagNeighborAvail@1@PEAH@Z 0000000180038a90 f   decode_slice.obj
 0001:00037c40       ?WelsMapNxNNeighToSampleNormal@WelsDec@@YAXPEAUTagNeighborAvail@1@PEAH@Z 0000000180038c40 f   decode_slice.obj
 0001:00037da0       ?WelsMbInterConstruction@WelsDec@@YAHPEAUTagWelsDecoderContext@1@PEAUTagDqLayer@1@@Z 0000000180038da0 f   decode_slice.obj
 0001:00037f80       ?WelsMbInterPrediction@WelsDec@@YAHPEAUTagWelsDecoderContext@1@PEAUTagDqLayer@1@@Z 0000000180038f80 f   decode_slice.obj
 0001:000380f0       ?WelsMbInterSampleConstruction@WelsDec@@YAHPEAUTagWelsDecoderContext@1@PEAUTagDqLayer@1@PEAE22HH@Z 00000001800390f0 f   decode_slice.obj
 0001:00038640       ?WelsMbIntraPredictionConstruction@WelsDec@@YAHPEAUTagWelsDecoderContext@1@PEAUTagDqLayer@1@_N@Z 0000000180039640 f   decode_slice.obj
 0001:000387f0       ?WelsTargetMbConstruction@WelsDec@@YAHPEAUTagWelsDecoderContext@1@@Z 00000001800397f0 f   decode_slice.obj
 0001:00038950       ?WelsTargetSliceConstruction@WelsDec@@YAHPEAUTagWelsDecoderContext@1@@Z 0000000180039950 f   decode_slice.obj
 0001:00038de0       ?DoErrorConFrameCopy@WelsDec@@YAXPEAUTagWelsDecoderContext@1@@Z 0000000180039de0 f   error_concealment.obj
 0001:00039080       ?DoErrorConSliceCopy@WelsDec@@YAXPEAUTagWelsDecoderContext@1@@Z 000000018003a080 f   error_concealment.obj
 0001:00039710       ?DoErrorConSliceMVCopy@WelsDec@@YAXPEAUTagWelsDecoderContext@1@@Z 000000018003a710 f   error_concealment.obj
 0001:00039c00       ?DoMbECMvCopy@WelsDec@@YAXPEAUTagWelsDecoderContext@1@PEAUTagPicture@1@1HHHPEAUTagMCRefMember@1@@Z 000000018003ac00 f   error_concealment.obj
 0001:0003a440       ?GetAvilInfoFromCorrectMb@WelsDec@@YAXPEAUTagWelsDecoderContext@1@@Z 000000018003b440 f   error_concealment.obj
 0001:0003b910       ?ImplementErrorCon@WelsDec@@YAXPEAUTagWelsDecoderContext@1@@Z 000000018003c910 f   error_concealment.obj
 0001:0003ba60       ?InitErrorCon@WelsDec@@YAXPEAUTagWelsDecoderContext@1@@Z 000000018003ca60 f   error_concealment.obj
 0001:0003bb50       ?MarkECFrameAsRef@WelsDec@@YAHPEAUTagWelsDecoderContext@1@@Z 000000018003cb50 f   error_concealment.obj
 0001:0003bc50       ?NeedErrorCon@WelsDec@@YA_NPEAUTagWelsDecoderContext@1@@Z 000000018003cc50 f   error_concealment.obj
 0001:0003c1c0       ?FmoMbToSliceGroup@WelsDec@@YAHPEAUTagFmo@1@F@Z 000000018003d1c0 f   fmo.obj
 0001:0003c260       ?FmoNextMb@WelsDec@@YAFPEAUTagFmo@1@F@Z 000000018003d260 f   fmo.obj
 0001:0003c340       ?FmoParamSetsChanged@WelsDec@@YA_NPEAUTagFmo@1@HHH@Z 000000018003d340 f   fmo.obj
 0001:0003c400       ?FmoParamUpdate@WelsDec@@YA_NPEAUTagFmo@1@PEAUTagSps@1@PEAUTagPps@1@PEAHPEAVCMemoryAlign@WelsCommon@@@Z 000000018003d400 f   fmo.obj
 0001:0003c510       ?InitFmo@WelsDec@@YAHPEAUTagFmo@1@PEAUTagPps@1@HHPEAVCMemoryAlign@WelsCommon@@@Z 000000018003d510 f   fmo.obj
 0001:0003c590       ?UninitFmoList@WelsDec@@YAXPEAUTagFmo@1@HHPEAVCMemoryAlign@WelsCommon@@@Z 000000018003d590 f   fmo.obj
 0001:0003c750       ?WelsI16x16LumaPredDcLeft_c@WelsDec@@YAXPEAEH@Z 000000018003d750 f   get_intra_predictor.obj
 0001:0003c8f0       ?WelsI16x16LumaPredDcNA_c@WelsDec@@YAXPEAEH@Z 000000018003d8f0 f   get_intra_predictor.obj
 0001:0003c9e0       ?WelsI16x16LumaPredDcTop_c@WelsDec@@YAXPEAEH@Z 000000018003d9e0 f   get_intra_predictor.obj
 0001:0003cb30       ?WelsI16x16LumaPredDc_c@WelsDec@@YAXPEAEH@Z 000000018003db30 f   get_intra_predictor.obj
 0001:0003ccb0       ?WelsI16x16LumaPredH_c@WelsDec@@YAXPEAEH@Z 000000018003dcb0 f   get_intra_predictor.obj
 0001:0003cdb0       ?WelsI16x16LumaPredPlane_c@WelsDec@@YAXPEAEH@Z 000000018003ddb0 f   get_intra_predictor.obj
 0001:0003d040       ?WelsI16x16LumaPredV_c@WelsDec@@YAXPEAEH@Z 000000018003e040 f   get_intra_predictor.obj
 0001:0003d150       ?WelsI4x4LumaPredDDLTop_c@WelsDec@@YAXPEAEH@Z 000000018003e150 f   get_intra_predictor.obj
 0001:0003d3a0       ?WelsI4x4LumaPredDDL_c@WelsDec@@YAXPEAEH@Z 000000018003e3a0 f   get_intra_predictor.obj
 0001:0003d670       ?WelsI4x4LumaPredDDR_c@WelsDec@@YAXPEAEH@Z 000000018003e670 f   get_intra_predictor.obj
 0001:0003d9f0       ?WelsI4x4LumaPredDcLeft_c@WelsDec@@YAXPEAEH@Z 000000018003e9f0 f   get_intra_predictor.obj
 0001:0003db00       ?WelsI4x4LumaPredDcNA_c@WelsDec@@YAXPEAEH@Z 000000018003eb00 f   get_intra_predictor.obj
 0001:0003dbb0       ?WelsI4x4LumaPredDcTop_c@WelsDec@@YAXPEAEH@Z 000000018003ebb0 f   get_intra_predictor.obj
 0001:0003dcd0       ?WelsI4x4LumaPredDc_c@WelsDec@@YAXPEAEH@Z 000000018003ecd0 f   get_intra_predictor.obj
 0001:0003de50       ?WelsI4x4LumaPredHD_c@WelsDec@@YAXPEAEH@Z 000000018003ee50 f   get_intra_predictor.obj
 0001:0003e200       ?WelsI4x4LumaPredHU_c@WelsDec@@YAXPEAEH@Z 000000018003f200 f   get_intra_predictor.obj
 0001:0003e480       ?WelsI4x4LumaPredH_c@WelsDec@@YAXPEAEH@Z 000000018003f480 f   get_intra_predictor.obj
 0001:0003e5a0       ?WelsI4x4LumaPredVLTop_c@WelsDec@@YAXPEAEH@Z 000000018003f5a0 f   get_intra_predictor.obj
 0001:0003e840       ?WelsI4x4LumaPredVL_c@WelsDec@@YAXPEAEH@Z 000000018003f840 f   get_intra_predictor.obj
 0001:0003eb80       ?WelsI4x4LumaPredVR_c@WelsDec@@YAXPEAEH@Z 000000018003fb80 f   get_intra_predictor.obj
 0001:0003eef0       ?WelsI4x4LumaPredV_c@WelsDec@@YAXPEAEH@Z 000000018003fef0 f   get_intra_predictor.obj
 0001:0003efb0       ?WelsI8x8LumaPredDDLTop_c@WelsDec@@YAXPEAEH_N1@Z 000000018003ffb0 f   get_intra_predictor.obj
 0001:0003f310       ?WelsI8x8LumaPredDDL_c@WelsDec@@YAXPEAEH_N1@Z 0000000180040310 f   get_intra_predictor.obj
 0001:0003f630       ?WelsI8x8LumaPredDDR_c@WelsDec@@YAXPEAEH_N1@Z 0000000180040630 f   get_intra_predictor.obj
 0001:0003fcc0       ?WelsI8x8LumaPredDcLeft_c@WelsDec@@YAXPEAEH_N1@Z 0000000180040cc0 f   get_intra_predictor.obj
 0001:0003ffd0       ?WelsI8x8LumaPredDcNA_c@WelsDec@@YAXPEAEH_N1@Z 0000000180040fd0 f   get_intra_predictor.obj
 0001:000400c0       ?WelsI8x8LumaPredDcTop_c@WelsDec@@YAXPEAEH_N1@Z 00000001800410c0 f   get_intra_predictor.obj
 0001:00040430       ?WelsI8x8LumaPredDc_c@WelsDec@@YAXPEAEH_N1@Z 0000000180041430 f   get_intra_predictor.obj
 0001:00040940       ?WelsI8x8LumaPredHD_c@WelsDec@@YAXPEAEH_N1@Z 0000000180041940 f   get_intra_predictor.obj
 0001:00041030       ?WelsI8x8LumaPredHU_c@WelsDec@@YAXPEAEH_N1@Z 0000000180042030 f   get_intra_predictor.obj
 0001:00041400       ?WelsI8x8LumaPredH_c@WelsDec@@YAXPEAEH_N1@Z 0000000180042400 f   get_intra_predictor.obj
 0001:000416b0       ?WelsI8x8LumaPredVLTop_c@WelsDec@@YAXPEAEH_N1@Z 00000001800426b0 f   get_intra_predictor.obj
 0001:00041a40       ?WelsI8x8LumaPredVL_c@WelsDec@@YAXPEAEH_N1@Z 0000000180042a40 f   get_intra_predictor.obj
 0001:00041da0       ?WelsI8x8LumaPredVR_c@WelsDec@@YAXPEAEH_N1@Z 0000000180042da0 f   get_intra_predictor.obj
 0001:00042490       ?WelsI8x8LumaPredV_c@WelsDec@@YAXPEAEH_N1@Z 0000000180043490 f   get_intra_predictor.obj
 0001:000427e0       ?WelsIChromaPredDcLeft_c@WelsDec@@YAXPEAEH@Z 00000001800437e0 f   get_intra_predictor.obj
 0001:00042a40       ?WelsIChromaPredDcNA_c@WelsDec@@YAXPEAEH@Z 0000000180043a40 f   get_intra_predictor.obj
 0001:00042b10       ?WelsIChromaPredDcTop_c@WelsDec@@YAXPEAEH@Z 0000000180043b10 f   get_intra_predictor.obj
 0001:00042d20       ?WelsIChromaPredDc_c@WelsDec@@YAXPEAEH@Z 0000000180043d20 f   get_intra_predictor.obj
 0001:00043170       ?WelsIChromaPredH_c@WelsDec@@YAXPEAEH@Z 0000000180044170 f   get_intra_predictor.obj
 0001:00043260       ?WelsIChromaPredPlane_c@WelsDec@@YAXPEAEH@Z 0000000180044260 f   get_intra_predictor.obj
 0001:000434f0       ?WelsIChromaPredV_c@WelsDec@@YAXPEAEH@Z 00000001800444f0 f   get_intra_predictor.obj
 0001:00043a50       ?GetLTRFrameIndex@WelsDec@@YAHPEAUTagRefPic@1@H@Z 0000000180044a50 f   manage_dec_ref.obj
 0001:00044a60       ?WelsInitRefList@WelsDec@@YAHPEAUTagWelsDecoderContext@1@H@Z 0000000180045a60 f   manage_dec_ref.obj
 0001:000450e0       ?WelsMarkAsRef@WelsDec@@YAHPEAUTagWelsDecoderContext@1@@Z 00000001800460e0 f   manage_dec_ref.obj
 0001:000454b0       ?WelsReorderRefList@WelsDec@@YAHPEAUTagWelsDecoderContext@1@@Z 00000001800464b0 f   manage_dec_ref.obj
 0001:00045ad0       ?WelsResetRefPic@WelsDec@@YAXPEAUTagWelsDecoderContext@1@@Z 0000000180046ad0 f   manage_dec_ref.obj
 0001:00045c90       ?ExpandNalUnitList@WelsDec@@YAHPEAPEAUTagAccessUnits@1@HHPEAVCMemoryAlign@WelsCommon@@@Z 0000000180046c90 f   memmgr_nal_unit.obj
 0001:00045e50       ?MemFreeNalList@WelsDec@@YAHPEAPEAUTagAccessUnits@1@PEAVCMemoryAlign@WelsCommon@@@Z 0000000180046e50 f   memmgr_nal_unit.obj
 0001:00045ee0       ?MemGetNextNal@WelsDec@@YAPEAUTagNalUnit@1@PEAPEAUTagAccessUnits@1@PEAVCMemoryAlign@WelsCommon@@@Z 0000000180046ee0 f   memmgr_nal_unit.obj
 0001:00045fd0       ?MemInitNalList@WelsDec@@YAHPEAPEAUTagAccessUnits@1@IPEAVCMemoryAlign@WelsCommon@@@Z 0000000180046fd0 f   memmgr_nal_unit.obj
 0001:000461c0       ?PredInter16x8Mv@WelsDec@@YAXQEAY1BO@1FQEAY0BO@CHCQEAF@Z 00000001800471c0 f   mv_pred.obj
 0001:00046330       ?PredInter8x16Mv@WelsDec@@YAXQEAY1BO@1FQEAY0BO@CHCQEAF@Z 0000000180047330 f   mv_pred.obj
 0001:000464e0       ?PredMv@WelsDec@@YAXQEAY1BO@1FQEAY0BO@CHHCQEAF@Z 00000001800474e0 f   mv_pred.obj
 0001:000468e0       ?PredPSkipMvFromNeighbor@WelsDec@@YAXPEAUTagDqLayer@1@QEAF@Z 00000001800478e0 f   mv_pred.obj
 0001:00047350       ?UpdateP16x16MotionInfo@WelsDec@@YAXPEAUTagDqLayer@1@CQEAF@Z 0000000180048350 f   mv_pred.obj
 0001:00047540       ?UpdateP16x8MotionInfo@WelsDec@@YAXPEAUTagDqLayer@1@QEAY1BO@1FQEAY0BO@CHCQEAF@Z 0000000180048540 f   mv_pred.obj
 0001:00047850       ?UpdateP8x16MotionInfo@WelsDec@@YAXPEAUTagDqLayer@1@QEAY1BO@1FQEAY0BO@CHCQEAF@Z 0000000180048850 f   mv_pred.obj
 0001:00047fb0       ?ParseCbfInfoCabac@WelsDec@@YAHPEAUTagNeighborAvail@1@PEAEHHPEAUTagWelsDecoderContext@1@AEAI@Z 0000000180048fb0 f   parse_mb_syn_cabac.obj
 0001:00048410       ?ParseCbpInfoCabac@WelsDec@@YAHPEAUTagWelsDecoderContext@1@PEAUTagNeighborAvail@1@AEAI@Z 0000000180049410 f   parse_mb_syn_cabac.obj
 0001:00048be0       ?ParseDeltaQpCabac@WelsDec@@YAHPEAUTagWelsDecoderContext@1@AEAH@Z 0000000180049be0 f   parse_mb_syn_cabac.obj
 0001:00048da0       ?ParseEndOfSliceCabac@WelsDec@@YAHPEAUTagWelsDecoderContext@1@AEAI@Z 0000000180049da0 f   parse_mb_syn_cabac.obj
 0001:00048e30       ?ParseIPCMInfoCabac@WelsDec@@YAHPEAUTagWelsDecoderContext@1@@Z 0000000180049e30 f   parse_mb_syn_cabac.obj
 0001:00049260       ?ParseInterMotionInfoCabac@WelsDec@@YAHPEAUTagWelsDecoderContext@1@PEAUTagNeighborAvail@1@PEAEQEAY1BO@1F3QEAY0BO@C@Z 000000018004a260 f   parse_mb_syn_cabac.obj
 0001:0004ae70       ?ParseIntraPredModeChromaCabac@WelsDec@@YAHPEAUTagWelsDecoderContext@1@EAEAH@Z 000000018004be70 f   parse_mb_syn_cabac.obj
 0001:0004b200       ?ParseIntraPredModeLumaCabac@WelsDec@@YAHPEAUTagWelsDecoderContext@1@AEAH@Z 000000018004c200 f   parse_mb_syn_cabac.obj
 0001:0004b3f0       ?ParseMBTypeISliceCabac@WelsDec@@YAHPEAUTagWelsDecoderContext@1@PEAUTagNeighborAvail@1@AEAI@Z 000000018004c3f0 f   parse_mb_syn_cabac.obj
 0001:0004b7a0       ?ParseMBTypePSliceCabac@WelsDec@@YAHPEAUTagWelsDecoderContext@1@PEAUTagNeighborAvail@1@AEAI@Z 000000018004c7a0 f   parse_mb_syn_cabac.obj
 0001:0004bbb0       ?ParseMvdInfoCabac@WelsDec@@YAHPEAUTagWelsDecoderContext@1@PEAUTagNeighborAvail@1@QEAY0BO@CQEAY1BO@1FHCCAEAF@Z 000000018004cbb0 f   parse_mb_syn_cabac.obj
 0001:0004bfc0       ?ParseRefIdxCabac@WelsDec@@YAHPEAUTagWelsDecoderContext@1@PEAUTagNeighborAvail@1@PEAEQEAY0BO@CHHHHAEAC@Z 000000018004cfc0 f   parse_mb_syn_cabac.obj
 0001:0004c480       ?ParseResidualBlockCabac8x8@WelsDec@@YAHPEAUTagNeighborAvail@1@PEAEPEAUTagBitStringAux@WelsCommon@@HHPEBEHPEAFEPEAUTagWelsDecoderContext@1@@Z 000000018004d480 f   parse_mb_syn_cabac.obj
 0001:0004c850       ?ParseResidualBlockCabac@WelsDec@@YAHPEAUTagNeighborAvail@1@PEAEPEAUTagBitStringAux@WelsCommon@@HHPEBEHPEAFEPEAUTagWelsDecoderContext@1@@Z 000000018004d850 f   parse_mb_syn_cabac.obj
 0001:0004cd10       ?ParseSignificantCoeffCabac@WelsDec@@YAHPEAHHPEAUTagWelsDecoderContext@1@@Z 000000018004dd10 f   parse_mb_syn_cabac.obj
 0001:0004d080       ?ParseSignificantMapCabac@WelsDec@@YAHPEAHHPEAUTagWelsDecoderContext@1@AEAI@Z 000000018004e080 f   parse_mb_syn_cabac.obj
 0001:0004d3b0       ?ParseSkipFlagCabac@WelsDec@@YAHPEAUTagWelsDecoderContext@1@PEAUTagNeighborAvail@1@AEAI@Z 000000018004e3b0 f   parse_mb_syn_cabac.obj
 0001:0004d4d0       ?ParseSubMBTypeCabac@WelsDec@@YAHPEAUTagWelsDecoderContext@1@PEAUTagNeighborAvail@1@AEAI@Z 000000018004e4d0 f   parse_mb_syn_cabac.obj
 0001:0004d650       ?ParseTransformSize8x8FlagCabac@WelsDec@@YAHPEAUTagWelsDecoderContext@1@PEAUTagNeighborAvail@1@AEA_N@Z 000000018004e650 f   parse_mb_syn_cabac.obj
 0001:0004d850       ?UpdateP16x16MvdCabac@WelsDec@@YAXPEAUTagDqLayer@1@QEAFC@Z 000000018004e850 f   parse_mb_syn_cabac.obj
 0001:0004d950       ?UpdateP16x8MvdCabac@WelsDec@@YAXPEAUTagDqLayer@1@QEAY1BO@1FHQEAFC@Z 000000018004e950 f   parse_mb_syn_cabac.obj
 0001:0004db40       ?UpdateP16x8RefIdxCabac@WelsDec@@YAXPEAUTagDqLayer@1@QEAY0BO@CHCC@Z 000000018004eb40 f   parse_mb_syn_cabac.obj
 0001:0004dcc0       ?UpdateP8x16MvdCabac@WelsDec@@YAXPEAUTagDqLayer@1@QEAY1BO@1FHQEAFC@Z 000000018004ecc0 f   parse_mb_syn_cabac.obj
 0001:0004deb0       ?UpdateP8x16RefIdxCabac@WelsDec@@YAXPEAUTagDqLayer@1@QEAY0BO@CHCC@Z 000000018004eeb0 f   parse_mb_syn_cabac.obj
 0001:0004e060       ?UpdateP8x8RefIdxCabac@WelsDec@@YAXPEAUTagDqLayer@1@QEAY0BO@CHCC@Z 000000018004f060 f   parse_mb_syn_cabac.obj
 0001:0004e1b0       ?BsEndCavlc@WelsDec@@YAXPEAUTagBitStringAux@WelsCommon@@@Z 000000018004f1b0 f   parse_mb_syn_cavlc.obj
 0001:0004ebf0       ?BsStartCavlc@WelsDec@@YAXPEAUTagBitStringAux@WelsCommon@@@Z 000000018004fbf0 f   parse_mb_syn_cavlc.obj
 0001:0004fe20       ?CheckIntra16x16PredMode@WelsDec@@YAHEPEAC@Z 0000000180050e20 f   parse_mb_syn_cavlc.obj
 0001:0004ffc0       ?CheckIntraChromaPredMode@WelsDec@@YAHEPEAC@Z 0000000180050fc0 f   parse_mb_syn_cavlc.obj
 0001:00050130       ?CheckIntraNxNPredMode@WelsDec@@YAHPEAHPEACH_N@Z 0000000180051130 f   parse_mb_syn_cavlc.obj
 0001:000507f0       ?GetNeighborAvailMbType@WelsDec@@YAXPEAUTagNeighborAvail@1@PEAUTagDqLayer@1@@Z 00000001800517f0 f   parse_mb_syn_cavlc.obj
 0001:00050d70       ?ParseInterInfo@WelsDec@@YAHPEAUTagWelsDecoderContext@1@QEAY1BO@1FQEAY0BO@CPEAUTagBitStringAux@WelsCommon@@@Z 0000000180051d70 f   parse_mb_syn_cavlc.obj
 0001:000528a0       ?PredIntra4x4Mode@WelsDec@@YAHPEACH@Z 00000001800538a0 f   parse_mb_syn_cavlc.obj
 0001:00052980       ?WelsFillCacheConstrain0IntraNxN@WelsDec@@YAXPEAUTagNeighborAvail@1@PEAEPEACPEAUTagDqLayer@1@@Z 0000000180053980 f   parse_mb_syn_cavlc.obj
 0001:00052c60       ?WelsFillCacheConstrain1IntraNxN@WelsDec@@YAXPEAUTagNeighborAvail@1@PEAEPEACPEAUTagDqLayer@1@@Z 0000000180053c60 f   parse_mb_syn_cavlc.obj
 0001:00052f40       ?WelsFillCacheInter@WelsDec@@YAXPEAUTagNeighborAvail@1@PEAEQEAY1BO@1FQEAY0BO@CPEAUTagDqLayer@1@@Z 0000000180053f40 f   parse_mb_syn_cavlc.obj
 0001:00053ba0       ?WelsFillCacheInterCabac@WelsDec@@YAXPEAUTagNeighborAvail@1@PEAEQEAY1BO@1F2QEAY0BO@CPEAUTagDqLayer@1@@Z 0000000180054ba0 f   parse_mb_syn_cavlc.obj
 0001:00054c60       ?WelsFillCacheNonZeroCount@WelsDec@@YAXPEAUTagNeighborAvail@1@PEAEPEAUTagDqLayer@1@@Z 0000000180055c60 f   parse_mb_syn_cavlc.obj
 0001:000550f0       ?WelsResidualBlockCavlc8x8@WelsDec@@YAHPEAUTagVlcTable@1@PEAEPEAUTagBitStringAux@WelsCommon@@HHPEBEHPEAFHEPEAUTagWelsDecoderContext@1@@Z 00000001800560f0 f   parse_mb_syn_cavlc.obj
 0001:00055840       ?WelsResidualBlockCavlc@WelsDec@@YAHPEAUTagVlcTable@1@PEAEPEAUTagBitStringAux@WelsCommon@@HHPEBEHPEAFEPEAUTagWelsDecoderContext@1@@Z 0000000180056840 f   parse_mb_syn_cavlc.obj
 0001:00056050       ?AllocPicture@WelsDec@@YAPEAUTagPicture@1@PEAUTagWelsDecoderContext@1@HH@Z 0000000180057050 f   pic_queue.obj
 0001:00056470       ?FreePicture@WelsDec@@YAXPEAUTagPicture@1@PEAVCMemoryAlign@WelsCommon@@@Z 0000000180057470 f   pic_queue.obj
 0001:00056530       ?PrefetchPic@WelsDec@@YAPEAUTagPicture@1@PEAUTagPicBuff@1@@Z 0000000180057530 f   pic_queue.obj
 0001:000566d0       ?BaseMC@WelsDec@@YAXPEAUTagMCRefMember@1@HHPEAUTagMcFunc@@HHQEAF@Z 00000001800576d0 f   rec_mb.obj
 0001:000569e0       ?GetInterPred@WelsDec@@YAXPEAE00PEAUTagWelsDecoderContext@1@@Z 00000001800579e0 f   rec_mb.obj
 0001:00057ff0       ?RecChroma@WelsDec@@YAHHPEAUTagWelsDecoderContext@1@PEAFPEAUTagDqLayer@1@@Z 0000000180058ff0 f   rec_mb.obj
 0001:00058270       ?RecI16x16Mb@WelsDec@@YAHHPEAUTagWelsDecoderContext@1@PEAFPEAUTagDqLayer@1@@Z 0000000180059270 f   rec_mb.obj
 0001:00058550       ?RecI4x4Chroma@WelsDec@@YAHHPEAUTagWelsDecoderContext@1@PEAFPEAUTagDqLayer@1@@Z 0000000180059550 f   rec_mb.obj
 0001:00058680       ?RecI4x4Luma@WelsDec@@YAHHPEAUTagWelsDecoderContext@1@PEAFPEAUTagDqLayer@1@@Z 0000000180059680 f   rec_mb.obj
 0001:00058860       ?RecI4x4Mb@WelsDec@@YAHHPEAUTagWelsDecoderContext@1@PEAFPEAUTagDqLayer@1@@Z 0000000180059860 f   rec_mb.obj
 0001:000588f0       ?RecI8x8Luma@WelsDec@@YAHHPEAUTagWelsDecoderContext@1@PEAFPEAUTagDqLayer@1@@Z 00000001800598f0 f   rec_mb.obj
 0001:00058da0       ?RecI8x8Mb@WelsDec@@YAHHPEAUTagWelsDecoderContext@1@PEAFPEAUTagDqLayer@1@@Z 0000000180059da0 f   rec_mb.obj
 0001:00058e30       ?WeightPrediction@WelsDec@@YAXPEAUTagDqLayer@1@PEAUTagMCRefMember@1@HHH@Z 0000000180059e30 f   rec_mb.obj
 0001:00059330       ?WelsFillRecNeededMbInfo@WelsDec@@YAXPEAUTagWelsDecoderContext@1@_NPEAUTagDqLayer@1@@Z 000000018005a330 f   rec_mb.obj
 0001:000594d0       ??0CWelsDecoder@WelsDec@@QEAA@XZ 000000018005a4d0 f   welsDecoderExt.obj
 0001:00059620       ??0ISVCDecoder@@QEAA@XZ    000000018005a620 f i welsDecoderExt.obj
 0001:00059670       ??1CWelsDecoder@WelsDec@@UEAA@XZ 000000018005a670 f   welsDecoderExt.obj
 0001:00059770       ??1ISVCDecoder@@UEAA@XZ    000000018005a770 f i welsDecoderExt.obj
 0001:000597d0       ??_GCWelsDecoder@WelsDec@@UEAAPEAXI@Z 000000018005a7d0 f i welsDecoderExt.obj
 0001:000597d0       ??_ECWelsDecoder@WelsDec@@UEAAPEAXI@Z 000000018005a7d0 f i welsDecoderExt.obj
 0001:00059840       ??_GISVCDecoder@@UEAAPEAXI@Z 000000018005a840 f i welsDecoderExt.obj
 0001:00059840       ??_EISVCDecoder@@UEAAPEAXI@Z 000000018005a840 f i welsDecoderExt.obj
 0001:000598b0       ??_GwelsCodecTrace@@QEAAPEAXI@Z 000000018005a8b0 f i welsDecoderExt.obj
 0001:00059920       ?DecodeFrame2@CWelsDecoder@WelsDec@@UEAA?AW4DECODING_STATE@@PEBEHPEAPEAEPEAUTagBufferInfo@@@Z 000000018005a920 f   welsDecoderExt.obj
 0001:0005a2e0       ?DecodeFrame@CWelsDecoder@WelsDec@@UEAA?AW4DECODING_STATE@@PEBEHPEAPEAEPEAHAEAH3@Z 000000018005b2e0 f   welsDecoderExt.obj
 0001:0005a470       ?DecodeFrameEx@CWelsDecoder@WelsDec@@UEAA?AW4DECODING_STATE@@PEBEHPEAEHAEAH222@Z 000000018005b470 f   welsDecoderExt.obj
 0001:0005a4d0       ?DecodeFrameNoDelay@CWelsDecoder@WelsDec@@UEAA?AW4DECODING_STATE@@PEBEHPEAPEAEPEAUTagBufferInfo@@@Z 000000018005b4d0 f   welsDecoderExt.obj
 0001:0005a590       ?DecodeParser@CWelsDecoder@WelsDec@@UEAA?AW4DECODING_STATE@@PEBEHPEAUTagParserBsInfo@@@Z 000000018005b590 f   welsDecoderExt.obj
 0001:0005a800       ?GetOption@CWelsDecoder@WelsDec@@UEAAJW4DECODER_OPTION@@PEAX@Z 000000018005b800 f   welsDecoderExt.obj
 0001:0005ab40       ?InitDecoder@CWelsDecoder@WelsDec@@AEAAH_N@Z 000000018005bb40 f   welsDecoderExt.obj
 0001:0005acd0       ?Initialize@CWelsDecoder@WelsDec@@UEAAJPEBUTagSVCDecodingParam@@@Z 000000018005bcd0 f   welsDecoderExt.obj
 0001:0005adc0       ?ResetDecoder@CWelsDecoder@WelsDec@@AEAAHXZ 000000018005bdc0 f   welsDecoderExt.obj
 0001:0005af30       ?SetOption@CWelsDecoder@WelsDec@@UEAAJW4DECODER_OPTION@@PEAX@Z 000000018005bf30 f   welsDecoderExt.obj
 0001:0005b300       ?UninitDecoder@CWelsDecoder@WelsDec@@AEAAXXZ 000000018005c300 f   welsDecoderExt.obj
 0001:0005b480       ?Uninitialize@CWelsDecoder@WelsDec@@UEAAJXZ 000000018005c480 f   welsDecoderExt.obj
 0001:0005b4d0       ?__autoclassinit2@CWelsDecoder@WelsDec@@QEAAX_K@Z 000000018005c4d0 f i welsDecoderExt.obj
 0001:0005b520       ?__autoclassinit2@welsCodecTrace@@QEAAX_K@Z 000000018005c520 f i welsDecoderExt.obj
 0001:0005b570       WelsCreateDecoder          000000018005c570 f   welsDecoderExt.obj
 0001:0005b650       WelsDestroyDecoder         000000018005c650 f   welsDecoderExt.obj
 0001:0005b6e0       WelsGetDecoderCapability   000000018005c6e0 f   welsDecoderExt.obj
 0001:0005b890       ??0CAdaptiveQuantization@WelsVP@@QEAA@H@Z 000000018005c890 f   AdaptiveQuantization.obj
 0001:0005b970       ??0IStrategy@WelsVP@@QEAA@XZ 000000018005c970 f i AdaptiveQuantization.obj
 0001:0005ba10       ??0IWelsVP@@QEAA@XZ        000000018005ca10 f i AdaptiveQuantization.obj
 0001:0005ba60       ??1CAdaptiveQuantization@WelsVP@@UEAA@XZ 000000018005ca60 f   AdaptiveQuantization.obj
 0001:0005bac0       ??1IStrategy@WelsVP@@UEAA@XZ 000000018005cac0 f i AdaptiveQuantization.obj
 0001:0005bb20       ??1IWelsVP@@UEAA@XZ        000000018005cb20 f i AdaptiveQuantization.obj
 0001:0005bb80       ??_GCAdaptiveQuantization@WelsVP@@UEAAPEAXI@Z 000000018005cb80 f i AdaptiveQuantization.obj
 0001:0005bb80       ??_ECAdaptiveQuantization@WelsVP@@UEAAPEAXI@Z 000000018005cb80 f i AdaptiveQuantization.obj
 0001:0005bbf0       ??_EIStrategy@WelsVP@@UEAAPEAXI@Z 000000018005cbf0 f i AdaptiveQuantization.obj
 0001:0005bbf0       ??_GIStrategy@WelsVP@@UEAAPEAXI@Z 000000018005cbf0 f i AdaptiveQuantization.obj
 0001:0005bc60       ??_EIWelsVP@@UEAAPEAXI@Z   000000018005cc60 f i AdaptiveQuantization.obj
 0001:0005bc60       ??_GIWelsVP@@UEAAPEAXI@Z   000000018005cc60 f i AdaptiveQuantization.obj
 0001:0005bcd0       ?Flush@IStrategy@WelsVP@@UEAA?AW4EResult@@H@Z 000000018005ccd0 f i AdaptiveQuantization.obj
 0001:0005bd20       ?Get@CAdaptiveQuantization@WelsVP@@UEAA?AW4EResult@@HPEAX@Z 000000018005cd20 f   AdaptiveQuantization.obj
 0001:0005bda0       ?Get@IStrategy@WelsVP@@UEAA?AW4EResult@@HPEAX@Z 000000018005cda0 f i AdaptiveQuantization.obj
 0001:0005bdf0       ?Init@IStrategy@WelsVP@@UEAA?AW4EResult@@HPEAX@Z 000000018005cdf0 f i AdaptiveQuantization.obj
 0001:0005be40       ?Process@CAdaptiveQuantization@WelsVP@@UEAA?AW4EResult@@HPEAUSPixMap@@0@Z 000000018005ce40 f   AdaptiveQuantization.obj
 0001:0005ca50       ?SampleVariance16x16_c@WelsVP@@YAXPEAEH0HPEAUSMotionTextureUnit@@@Z 000000018005da50 f   AdaptiveQuantization.obj
 0001:0005cc90       ?Set@CAdaptiveQuantization@WelsVP@@UEAA?AW4EResult@@HPEAX@Z 000000018005dc90 f   AdaptiveQuantization.obj
 0001:0005cd10       ?Set@IStrategy@WelsVP@@UEAA?AW4EResult@@HPEAX@Z 000000018005dd10 f i AdaptiveQuantization.obj
 0001:0005cd60       ?SpecialFeature@IStrategy@WelsVP@@UEAA?AW4EResult@@HPEAX0@Z 000000018005dd60 f i AdaptiveQuantization.obj
 0001:0005cdb0       ?Uninit@IStrategy@WelsVP@@UEAA?AW4EResult@@H@Z 000000018005ddb0 f i AdaptiveQuantization.obj
 0001:0005ce00       ?WelsInitVarFunc@CAdaptiveQuantization@WelsVP@@AEAAXAEAP6AXPEAEH0HPEAUSMotionTextureUnit@@@ZH@Z 000000018005de00 f   AdaptiveQuantization.obj
 0001:0005ce60       ?WelsMemset@WelsVP@@YAPEAXPEAXHI@Z 000000018005de60 f i AdaptiveQuantization.obj
 0001:0005cec4       CloseHandle                000000018005dec4 f   kernel32:KERNEL32.dll
 0001:0005ceca       InitializeCriticalSection  000000018005deca f   kernel32:KERNEL32.dll
 0001:0005ced0       EnterCriticalSection       000000018005ded0 f   kernel32:KERNEL32.dll
 0001:0005ced6       LeaveCriticalSection       000000018005ded6 f   kernel32:KERNEL32.dll
 0001:0005cedc       DeleteCriticalSection      000000018005dedc f   kernel32:KERNEL32.dll
 0001:0005cee2       SetEvent                   000000018005dee2 f   kernel32:KERNEL32.dll
 0001:0005cee8       WaitForSingleObject        000000018005dee8 f   kernel32:KERNEL32.dll
 0001:0005ceee       CreateEventW               000000018005deee f   kernel32:KERNEL32.dll
 0001:0005cef4       WaitForMultipleObjects     000000018005def4 f   kernel32:KERNEL32.dll
 0001:0005cefa       CreateThread               000000018005defa f   kernel32:KERNEL32.dll
 0001:0005cf00       GetCurrentThread           000000018005df00 f   kernel32:KERNEL32.dll
 0001:0005cf06       GetSystemInfo              000000018005df06 f   kernel32:KERNEL32.dll
 0001:0005cf0c       QueryPerformanceCounter    000000018005df0c f   kernel32:KERNEL32.dll
 0001:0005cf12       QueryPerformanceFrequency  000000018005df12 f   kernel32:KERNEL32.dll
 0001:0005cf20       _CRT_RTC_INIT              000000018005df20 f   MSVCRTD:init.obj
 0001:0005cf30       _CRT_RTC_INITW             000000018005df30 f   MSVCRTD:init.obj
 0001:0005cf40       _RTC_InitBase              000000018005df40 f   MSVCRTD:init.obj
 0001:0005cf80       _RTC_Shutdown              000000018005df80 f   MSVCRTD:init.obj
 0001:0005cfb0       __CheckForDebuggerJustMyCode 000000018005dfb0 f   MSVCRTD:debugger_jmc.obj
 0001:0005cff0       _RTC_AllocaHelper          000000018005dff0 f   MSVCRTD:stack.obj
 0001:0005d030       _RTC_CheckStackVars        000000018005e030 f   MSVCRTD:stack.obj
 0001:0005d0c0       _RTC_CheckStackVars2       000000018005e0c0 f   MSVCRTD:stack.obj
 0001:0005d1d0       __GSHandlerCheck           000000018005e1d0 f   MSVCRTD:gshandler.obj
 0001:0005d210       __GSHandlerCheckCommon     000000018005e210 f   MSVCRTD:gshandler.obj
 0001:0005d320       __security_check_cookie    000000018005e320 f   MSVCRTD:amdsecgs.obj
 0001:0005d350       ??3@YAXPEAX_K@Z            000000018005e350 f   MSVCRTD:delete_scalar_size.obj
 0001:0005d370       ??1type_info@@UEAA@XZ      000000018005e370 f   MSVCRTD:std_type_info_static.obj
 0001:0005d390       ??_Etype_info@@UEAAPEAXI@Z 000000018005e390 f i MSVCRTD:std_type_info_static.obj
 0001:0005d390       ??_Gtype_info@@UEAAPEAXI@Z 000000018005e390 f i MSVCRTD:std_type_info_static.obj
 0001:0005d3e0       __chkstk                   000000018005e3e0 f   MSVCRTD:chkstk.obj
 0001:0005d3e0       _alloca_probe              000000018005e3e0 f   MSVCRTD:chkstk.obj
 0001:0005d4d0       ?_RTC_AllocaFailure@@YAXPEAXPEAU_RTC_ALLOCA_NODE@@H@Z 000000018005e4d0 f   MSVCRTD:error.obj
 0001:0005d630       ?_RTC_Failure@@YAXPEAXH@Z  000000018005e630 f   MSVCRTD:error.obj
 0001:0005d680       ?_RTC_StackFailure@@YAXPEAXPEBD@Z 000000018005e680 f   MSVCRTD:error.obj
 0001:0005dab0       _RTC_UninitUse             000000018005eab0 f   MSVCRTD:error.obj
 0001:0005db80       _vsprintf_s_l              000000018005eb80 f i MSVCRTD:error.obj
 0001:0005dbf0       sprintf_s                  000000018005ebf0 f i MSVCRTD:error.obj
 0001:0005dc20       __raise_securityfailure    000000018005ec20 f   MSVCRTD:gs_report.obj
 0001:0005dc60       __report_gsfailure         000000018005ec60 f   MSVCRTD:gs_report.obj
 0001:0005dd40       __report_rangecheckfailure 000000018005ed40 f   MSVCRTD:gs_report.obj
 0001:0005dd60       __report_securityfailure   000000018005ed60 f   MSVCRTD:gs_report.obj
 0001:0005de00       __report_securityfailureEx 000000018005ee00 f   MSVCRTD:gs_report.obj
 0001:0005e070       ??2@YAPEAX_K@Z             000000018005f070 f   MSVCRTD:new_scalar.obj
 0001:0005e4d0       _CRT_INIT                  000000018005f4d0 f   MSVCRTD:dll_dllmain.obj
 0001:0005e500       _DllMainCRTStartup         000000018005f500 f   MSVCRTD:dll_dllmain.obj
 0001:0005e540       ?_RTC_GetErrorFunc@@YAP6AHHPEBDH00ZZPEBX@Z 000000018005f540 f   MSVCRTD:userapi.obj
 0001:0005e550       ?_RTC_GetErrorFuncW@@YAP6AHHPEB_WH00ZZPEBX@Z 000000018005f550 f   MSVCRTD:userapi.obj
 0001:0005e560       _RTC_GetErrDesc            000000018005f560 f   MSVCRTD:userapi.obj
 0001:0005e580       _RTC_NumErrors             000000018005f580 f   MSVCRTD:userapi.obj
 0001:0005e590       _RTC_SetErrorFunc          000000018005f590 f   MSVCRTD:userapi.obj
 0001:0005e5b0       _RTC_SetErrorFuncW         000000018005f5b0 f   MSVCRTD:userapi.obj
 0001:0005e5d0       _RTC_SetErrorType          000000018005f5d0 f   MSVCRTD:userapi.obj
 0001:0005e5f0       ??3@YAXPEAX@Z              000000018005f5f0 f   MSVCRTD:delete_scalar.obj
 0001:0005eb20       ?_RTC_GetSrcLine@@YAHPEAEPEA_WKPEAH1K@Z 000000018005fb20 f   MSVCRTD:pdblkup.obj
 0001:0005eef0       _guard_check_icall_nop     000000018005fef0 f i MSVCRTD:guard_support.obj
 0001:0005ef00       ReadNoFence64              000000018005ff00 f i MSVCRTD:guard_support.obj
 0001:0005ef20       ReadPointerNoFence         000000018005ff20 f i MSVCRTD:guard_support.obj
 0001:0005ef40       _guard_icall_checks_enforced 000000018005ff40 f i MSVCRTD:guard_support.obj
 0001:0005ef80       _guard_rf_checks_enforced  000000018005ff80 f i MSVCRTD:guard_support.obj
 0001:0005ef90       ??0bad_alloc@std@@AEAA@QEBD@Z 000000018005ff90 f i MSVCRTD:throw_bad_alloc.obj
 0001:0005efd0       ??0bad_alloc@std@@QEAA@AEBV01@@Z 000000018005ffd0 f i MSVCRTD:throw_bad_alloc.obj
 0001:0005f010       ??0bad_alloc@std@@QEAA@XZ  0000000180060010 f i MSVCRTD:throw_bad_alloc.obj
 0001:0005f050       ??0bad_array_new_length@std@@QEAA@AEBV01@@Z 0000000180060050 f i MSVCRTD:throw_bad_alloc.obj
 0001:0005f090       ??0bad_array_new_length@std@@QEAA@XZ 0000000180060090 f i MSVCRTD:throw_bad_alloc.obj
 0001:0005f0d0       ??0exception@std@@QEAA@AEBV01@@Z 00000001800600d0 f i MSVCRTD:throw_bad_alloc.obj
 0001:0005f130       ??0exception@std@@QEAA@QEBDH@Z 0000000180060130 f i MSVCRTD:throw_bad_alloc.obj
 0001:0005f180       ??1bad_alloc@std@@UEAA@XZ  0000000180060180 f i MSVCRTD:throw_bad_alloc.obj
 0001:0005f1a0       ??1bad_array_new_length@std@@UEAA@XZ 00000001800601a0 f i MSVCRTD:throw_bad_alloc.obj
 0001:0005f1c0       ??1exception@std@@UEAA@XZ  00000001800601c0 f i MSVCRTD:throw_bad_alloc.obj
 0001:0005f1f0       ??_Gbad_alloc@std@@UEAAPEAXI@Z 00000001800601f0 f i MSVCRTD:throw_bad_alloc.obj
 0001:0005f1f0       ??_Ebad_alloc@std@@UEAAPEAXI@Z 00000001800601f0 f i MSVCRTD:throw_bad_alloc.obj
 0001:0005f230       ??_Gbad_array_new_length@std@@UEAAPEAXI@Z 0000000180060230 f i MSVCRTD:throw_bad_alloc.obj
 0001:0005f230       ??_Ebad_array_new_length@std@@UEAAPEAXI@Z 0000000180060230 f i MSVCRTD:throw_bad_alloc.obj
 0001:0005f270       ??_Gexception@std@@UEAAPEAXI@Z 0000000180060270 f i MSVCRTD:throw_bad_alloc.obj
 0001:0005f270       ??_Eexception@std@@UEAAPEAXI@Z 0000000180060270 f i MSVCRTD:throw_bad_alloc.obj
 0001:0005f2b0       ?__scrt_throw_std_bad_alloc@@YAXXZ 00000001800602b0 f   MSVCRTD:throw_bad_alloc.obj
 0001:0005f2e0       ?__scrt_throw_std_bad_array_new_length@@YAXXZ 00000001800602e0 f   MSVCRTD:throw_bad_alloc.obj
 0001:0005f310       ?what@exception@std@@UEBAPEBDXZ 0000000180060310 f i MSVCRTD:throw_bad_alloc.obj
 0001:0005f410       __security_init_cookie     0000000180060410 f   MSVCRTD:gs_support.obj
 0001:0005f490       DllMain                    0000000180060490 f   MSVCRTD:dll_dllmain_stub.obj
 0001:0005f4d0       ?__scrt_initialize_type_info@@YAXXZ 00000001800604d0 f   MSVCRTD:tncleanup.obj
 0001:0005f4f0       ?__scrt_uninitialize_type_info@@YAXXZ 00000001800604f0 f   MSVCRTD:tncleanup.obj
 0001:0005f510       __local_stdio_scanf_options 0000000180060510 f i MSVCRTD:default_local_stdio_options.obj
 0001:0005f520       __scrt_initialize_default_local_stdio_options 0000000180060520 f   MSVCRTD:default_local_stdio_options.obj
 0001:0005f570       ?configure_argv@__scrt_narrow_argv_policy@@SAHXZ 0000000180060570 f i MSVCRTD:utility.obj
 0001:0005f660       ?initialize_environment@__scrt_narrow_environment_policy@@SAHXZ 0000000180060660 f i MSVCRTD:utility.obj
 0001:0005f700       NtCurrentTeb               0000000180060700 f i MSVCRTD:utility.obj
 0001:0005f710       __scrt_acquire_startup_lock 0000000180060710 f   MSVCRTD:utility.obj
 0001:0005f780       __scrt_dllmain_after_initialize_c 0000000180060780 f   MSVCRTD:utility.obj
 0001:0005f7b0       __scrt_dllmain_before_initialize_c 00000001800607b0 f   MSVCRTD:utility.obj
 0001:0005f7d0       __scrt_dllmain_crt_thread_attach 00000001800607d0 f   MSVCRTD:utility.obj
 0001:0005f800       __scrt_dllmain_crt_thread_detach 0000000180060800 f   MSVCRTD:utility.obj
 0001:0005f820       __scrt_dllmain_exception_filter 0000000180060820 f   MSVCRTD:utility.obj
 0001:0005f890       __scrt_dllmain_uninitialize_c 0000000180060890 f   MSVCRTD:utility.obj
 0001:0005f8c0       __scrt_dllmain_uninitialize_critical 00000001800608c0 f   MSVCRTD:utility.obj
 0001:0005f8e0       __scrt_initialize_crt      00000001800608e0 f   MSVCRTD:utility.obj
 0001:0005f930       __scrt_initialize_onexit_tables 0000000180060930 f   MSVCRTD:utility.obj
 0001:0005fa40       __scrt_is_nonwritable_in_current_image 0000000180060a40 f   MSVCRTD:utility.obj
 0001:0005fad0       __scrt_release_startup_lock 0000000180060ad0 f   MSVCRTD:utility.obj
 0001:0005fb00       __scrt_uninitialize_crt    0000000180060b00 f   MSVCRTD:utility.obj
 0001:0005fb40       _onexit                    0000000180060b40 f   MSVCRTD:utility.obj
 0001:0005fbc0       at_quick_exit              0000000180060bc0 f   MSVCRTD:utility.obj
 0001:0005fc10       atexit                     0000000180060c10 f   MSVCRTD:utility.obj
 0001:0005fc50       __scrt_get_dyn_tls_init_callback 0000000180060c50 f   MSVCRTD:dyn_tls_init.obj
 0001:0005fc60       __crt_debugger_hook        0000000180060c60 f   MSVCRTD:utility_desktop.obj
 0001:0005fc70       __scrt_fastfail            0000000180060c70 f   MSVCRTD:utility_desktop.obj
 0001:0005fe10       __scrt_get_show_window_mode 0000000180060e10 f   MSVCRTD:utility_desktop.obj
 0001:0005fe70       __scrt_initialize_mta      0000000180060e70 f   MSVCRTD:utility_desktop.obj
 0001:0005fe80       __scrt_initialize_winrt    0000000180060e80 f   MSVCRTD:utility_desktop.obj
 0001:0005fe90       __scrt_is_managed_app      0000000180060e90 f   MSVCRTD:utility_desktop.obj
 0001:0005ff40       __scrt_set_unhandled_exception_filter 0000000180060f40 f   MSVCRTD:utility_desktop.obj
 0001:0005ff60       __scrt_exe_initialize_mta  0000000180060f60 f   MSVCRTD:utility_desktop.obj
 0001:0005ff60       __scrt_stub_for_initialize_mta 0000000180060f60 f   MSVCRTD:utility_desktop.obj
 0001:0005ff70       __scrt_unhandled_exception_filter 0000000180060f70 f   MSVCRTD:utility_desktop.obj
 0001:00060010       _RTC_Initialize            0000000180061010 f   MSVCRTD:initsect.obj
 0001:00060060       _RTC_Terminate             0000000180061060 f   MSVCRTD:initsect.obj
 0001:000600b0       __isa_available_init       00000001800610b0 f   MSVCRTD:cpu_disp.obj
 0001:00060450       _get_startup_argv_mode     0000000180061450 f   MSVCRTD:argv_mode.obj
 0001:00060460       __scrt_is_ucrt_dll_in_use  0000000180061460 f   MSVCRTD:ucrt_detection.obj
 0001:00060485       memcpy                     0000000180061485 f   vcruntimed:VCRUNTIME140D.dll
 0001:0006048b       memset                     000000018006148b f   vcruntimed:VCRUNTIME140D.dll
 0001:00060491       __CxxFrameHandler4         0000000180061491 f   vcruntimed:VCRUNTIME140_1D.dll
 0001:00060497       memcmp                     0000000180061497 f   vcruntimed:VCRUNTIME140D.dll
 0001:0006049d       memmove                    000000018006149d f   vcruntimed:VCRUNTIME140D.dll
 0001:000604a3       _purecall                  00000001800614a3 f   vcruntimed:VCRUNTIME140D.dll
 0001:000604a9       __C_specific_handler_noexcept 00000001800614a9 f   vcruntimed:VCRUNTIME140D.dll
 0001:000604af       __C_specific_handler       00000001800614af f   vcruntimed:VCRUNTIME140D.dll
 0001:000604b5       __vcrt_GetModuleFileNameW  00000001800614b5 f   vcruntimed:VCRUNTIME140D.dll
 0001:000604bb       __vcrt_GetModuleHandleW    00000001800614bb f   vcruntimed:VCRUNTIME140D.dll
 0001:000604c1       __vcrt_LoadLibraryExW      00000001800614c1 f   vcruntimed:VCRUNTIME140D.dll
 0001:000604c7       __std_exception_copy       00000001800614c7 f   vcruntimed:VCRUNTIME140D.dll
 0001:000604cd       __std_exception_destroy    00000001800614cd f   vcruntimed:VCRUNTIME140D.dll
 0001:000604d3       _CxxThrowException         00000001800614d3 f   vcruntimed:VCRUNTIME140D.dll
 0001:000604d9       __std_type_info_destroy_list 00000001800614d9 f   vcruntimed:VCRUNTIME140D.dll
 0001:000604df       __current_exception        00000001800614df f   vcruntimed:VCRUNTIME140D.dll
 0001:000604e5       __current_exception_context 00000001800614e5 f   vcruntimed:VCRUNTIME140D.dll
 0001:000604eb       strncpy_s                  00000001800614eb f   ucrtd:ucrtbased.dll
 0001:000604f1       strlen                     00000001800614f1 f   ucrtd:ucrtbased.dll
 0001:000604f7       _localtime64_s             00000001800614f7 f   ucrtd:ucrtbased.dll
 0001:000604fd       strftime                   00000001800614fd f   ucrtd:ucrtbased.dll
 0001:00060503       _ftime64_s                 0000000180061503 f   ucrtd:ucrtbased.dll
 0001:00060509       fopen_s                    0000000180061509 f   ucrtd:ucrtbased.dll
 0001:0006050f       fclose                     000000018006150f f   ucrtd:ucrtbased.dll
 0001:00060515       fflush                     0000000180061515 f   ucrtd:ucrtbased.dll
 0001:0006051b       fseek                      000000018006151b f   ucrtd:ucrtbased.dll
 0001:00060521       fwrite                     0000000180061521 f   ucrtd:ucrtbased.dll
 0001:00060527       __stdio_common_vsnprintf_s 0000000180061527 f   ucrtd:ucrtbased.dll
 0001:0006052d       free                       000000018006152d f   ucrtd:ucrtbased.dll
 0001:00060533       malloc                     0000000180061533 f   ucrtd:ucrtbased.dll
 0001:00060539       _wassert                   0000000180061539 f   ucrtd:ucrtbased.dll
 0001:0006053f       log                        000000018006153f f   ucrtd:ucrtbased.dll
 0001:00060545       __acrt_iob_func            0000000180061545 f   ucrtd:ucrtbased.dll
 0001:0006054b       __stdio_common_vfprintf    000000018006154b f   ucrtd:ucrtbased.dll
 0001:00060551       ceil                       0000000180061551 f   ucrtd:ucrtbased.dll
 0001:00060557       _CrtDbgReport              0000000180061557 f   ucrtd:ucrtbased.dll
 0001:0006055d       _CrtDbgReportW             000000018006155d f   ucrtd:ucrtbased.dll
 0001:00060563       strcpy_s                   0000000180061563 f   ucrtd:ucrtbased.dll
 0001:00060569       strcat_s                   0000000180061569 f   ucrtd:ucrtbased.dll
 0001:0006056f       __stdio_common_vsprintf_s  000000018006156f f   ucrtd:ucrtbased.dll
 0001:00060575       _callnewh                  0000000180061575 f   ucrtd:ucrtbased.dll
 0001:0006057b       _initterm                  000000018006157b f   ucrtd:ucrtbased.dll
 0001:00060581       _initterm_e                0000000180061581 f   ucrtd:ucrtbased.dll
 0001:00060587       _free_dbg                  0000000180061587 f   ucrtd:ucrtbased.dll
 0001:0006058d       _wmakepath_s               000000018006158d f   ucrtd:ucrtbased.dll
 0001:00060593       _wsplitpath_s              0000000180061593 f   ucrtd:ucrtbased.dll
 0001:00060599       wcscpy_s                   0000000180061599 f   ucrtd:ucrtbased.dll
 0001:0006059f       _seh_filter_dll            000000018006159f f   ucrtd:ucrtbased.dll
 0001:000605a5       _configure_narrow_argv     00000001800615a5 f   ucrtd:ucrtbased.dll
 0001:000605ab       _initialize_narrow_environment 00000001800615ab f   ucrtd:ucrtbased.dll
 0001:000605b1       _initialize_onexit_table   00000001800615b1 f   ucrtd:ucrtbased.dll
 0001:000605b7       _register_onexit_function  00000001800615b7 f   ucrtd:ucrtbased.dll
 0001:000605bd       _execute_onexit_table      00000001800615bd f   ucrtd:ucrtbased.dll
 0001:000605c3       _crt_atexit                00000001800615c3 f   ucrtd:ucrtbased.dll
 0001:000605c9       _crt_at_quick_exit         00000001800615c9 f   ucrtd:ucrtbased.dll
 0001:000605cf       _cexit                     00000001800615cf f   ucrtd:ucrtbased.dll
 0001:000605d5       terminate                  00000001800615d5 f   ucrtd:ucrtbased.dll
 0001:000605db       GetCurrentThreadId         00000001800615db f   kernel32:KERNEL32.dll
 0001:000605e1       IsDebuggerPresent          00000001800615e1 f   kernel32:KERNEL32.dll
 0001:000605e7       RaiseException             00000001800615e7 f   kernel32:KERNEL32.dll
 0001:000605ed       MultiByteToWideChar        00000001800615ed f   kernel32:KERNEL32.dll
 0001:000605f3       WideCharToMultiByte        00000001800615f3 f   kernel32:KERNEL32.dll
 0001:000605f9       RtlCaptureContext          00000001800615f9 f   kernel32:KERNEL32.dll
 0001:000605ff       RtlLookupFunctionEntry     00000001800615ff f   kernel32:KERNEL32.dll
 0001:00060605       RtlVirtualUnwind           0000000180061605 f   kernel32:KERNEL32.dll
 0001:0006060b       UnhandledExceptionFilter   000000018006160b f   kernel32:KERNEL32.dll
 0001:00060611       SetUnhandledExceptionFilter 0000000180061611 f   kernel32:KERNEL32.dll
 0001:00060617       GetCurrentProcess          0000000180061617 f   kernel32:KERNEL32.dll
 0001:0006061d       TerminateProcess           000000018006161d f   kernel32:KERNEL32.dll
 0001:00060623       IsProcessorFeaturePresent  0000000180061623 f   kernel32:KERNEL32.dll
 0001:00060629       GetLastError               0000000180061629 f   kernel32:KERNEL32.dll
 0001:0006062f       HeapAlloc                  000000018006162f f   kernel32:KERNEL32.dll
 0001:00060635       HeapFree                   0000000180061635 f   kernel32:KERNEL32.dll
 0001:0006063b       GetProcessHeap             000000018006163b f   kernel32:KERNEL32.dll
 0001:00060641       VirtualQuery               0000000180061641 f   kernel32:KERNEL32.dll
 0001:00060647       FreeLibrary                0000000180061647 f   kernel32:KERNEL32.dll
 0001:0006064d       GetProcAddress             000000018006164d f   kernel32:KERNEL32.dll
 0001:00060653       GetCurrentProcessId        0000000180061653 f   kernel32:KERNEL32.dll
 0001:00060659       GetSystemTimeAsFileTime    0000000180061659 f   kernel32:KERNEL32.dll
 0001:0006065f       DisableThreadLibraryCalls  000000018006165f f   kernel32:KERNEL32.dll
 0001:00060665       InitializeSListHead        0000000180061665 f   kernel32:KERNEL32.dll
 0001:0006066b       GetStartupInfoW            000000018006166b f   kernel32:KERNEL32.dll
 0001:00060671       GetModuleHandleW           0000000180061671 f   kernel32:KERNEL32.dll
 0001:00060680       __vcrt_initialize          0000000180061680 f   MSVCRTD:ucrt_stubs.obj
 0001:00060680       __scrt_stub_for_acrt_initialize 0000000180061680 f   MSVCRTD:ucrt_stubs.obj
 0001:00060680       __acrt_initialize          0000000180061680 f   MSVCRTD:ucrt_stubs.obj
 0001:00060690       __acrt_thread_attach       0000000180061690 f   MSVCRTD:ucrt_stubs.obj
 0001:00060690       __vcrt_thread_attach       0000000180061690 f   MSVCRTD:ucrt_stubs.obj
 0001:00060690       __scrt_stub_for_acrt_thread_attach 0000000180061690 f   MSVCRTD:ucrt_stubs.obj
 0001:000606a0       __acrt_thread_detach       00000001800616a0 f   MSVCRTD:ucrt_stubs.obj
 0001:000606a0       __vcrt_thread_detach       00000001800616a0 f   MSVCRTD:ucrt_stubs.obj
 0001:000606a0       __scrt_stub_for_acrt_thread_detach 00000001800616a0 f   MSVCRTD:ucrt_stubs.obj
 0001:000606b0       __acrt_uninitialize        00000001800616b0 f   MSVCRTD:ucrt_stubs.obj
 0001:000606b0       __vcrt_uninitialize        00000001800616b0 f   MSVCRTD:ucrt_stubs.obj
 0001:000606b0       __scrt_stub_for_acrt_uninitialize 00000001800616b0 f   MSVCRTD:ucrt_stubs.obj
 0001:000606c0       __scrt_stub_for_acrt_uninitialize_critical 00000001800616c0 f   MSVCRTD:ucrt_stubs.obj
 0001:000606c0       __acrt_uninitialize_critical 00000001800616c0 f   MSVCRTD:ucrt_stubs.obj
 0001:000606c0       __vcrt_uninitialize_critical 00000001800616c0 f   MSVCRTD:ucrt_stubs.obj
 0001:000606d0       __scrt_stub_for_is_c_termination_complete 00000001800616d0 f   MSVCRTD:ucrt_stubs.obj
 0001:000606d0       _is_c_termination_complete 00000001800616d0 f   MSVCRTD:ucrt_stubs.obj
 0001:000606f0       _guard_dispatch_icall_nop  00000001800616f0 f   MSVCRTD:guard_dispatch.obj
 0001:00060710       _guard_xfg_dispatch_icall_nop 0000000180061710 f   MSVCRTD:guard_xfg_dispatch.obj
 0002:00000000       __imp_CloseHandle          0000000180062000     kernel32:KERNEL32.dll
 0002:00000008       __imp_InitializeCriticalSection 0000000180062008     kernel32:KERNEL32.dll
 0002:00000010       __imp_EnterCriticalSection 0000000180062010     kernel32:KERNEL32.dll
 0002:00000018       __imp_LeaveCriticalSection 0000000180062018     kernel32:KERNEL32.dll
 0002:00000020       __imp_DeleteCriticalSection 0000000180062020     kernel32:KERNEL32.dll
 0002:00000028       __imp_SetEvent             0000000180062028     kernel32:KERNEL32.dll
 0002:00000030       __imp_WaitForSingleObject  0000000180062030     kernel32:KERNEL32.dll
 0002:00000038       __imp_CreateEventW         0000000180062038     kernel32:KERNEL32.dll
 0002:00000040       __imp_WaitForMultipleObjects 0000000180062040     kernel32:KERNEL32.dll
 0002:00000048       __imp_CreateThread         0000000180062048     kernel32:KERNEL32.dll
 0002:00000050       __imp_GetCurrentThread     0000000180062050     kernel32:KERNEL32.dll
 0002:00000058       __imp_GetSystemInfo        0000000180062058     kernel32:KERNEL32.dll
 0002:00000060       __imp_QueryPerformanceCounter 0000000180062060     kernel32:KERNEL32.dll
 0002:00000068       __imp_QueryPerformanceFrequency 0000000180062068     kernel32:KERNEL32.dll
 0002:00000070       __imp_GetStartupInfoW      0000000180062070     kernel32:KERNEL32.dll
 0002:00000078       __imp_InitializeSListHead  0000000180062078     kernel32:KERNEL32.dll
 0002:00000080       __imp_DisableThreadLibraryCalls 0000000180062080     kernel32:KERNEL32.dll
 0002:00000088       __imp_GetSystemTimeAsFileTime 0000000180062088     kernel32:KERNEL32.dll
 0002:00000090       __imp_GetCurrentProcessId  0000000180062090     kernel32:KERNEL32.dll
 0002:00000098       __imp_GetProcAddress       0000000180062098     kernel32:KERNEL32.dll
 0002:000000a0       __imp_FreeLibrary          00000001800620a0     kernel32:KERNEL32.dll
 0002:000000a8       __imp_VirtualQuery         00000001800620a8     kernel32:KERNEL32.dll
 0002:000000b0       __imp_GetProcessHeap       00000001800620b0     kernel32:KERNEL32.dll
 0002:000000b8       __imp_HeapFree             00000001800620b8     kernel32:KERNEL32.dll
 0002:000000c0       __imp_HeapAlloc            00000001800620c0     kernel32:KERNEL32.dll
 0002:000000c8       __imp_GetLastError         00000001800620c8     kernel32:KERNEL32.dll
 0002:000000d0       __imp_IsProcessorFeaturePresent 00000001800620d0     kernel32:KERNEL32.dll
 0002:000000d8       __imp_TerminateProcess     00000001800620d8     kernel32:KERNEL32.dll
 0002:000000e0       __imp_GetCurrentProcess    00000001800620e0     kernel32:KERNEL32.dll
 0002:000000e8       __imp_SetUnhandledExceptionFilter 00000001800620e8     kernel32:KERNEL32.dll
 0002:000000f0       __imp_UnhandledExceptionFilter 00000001800620f0     kernel32:KERNEL32.dll
 0002:000000f8       __imp_RtlVirtualUnwind     00000001800620f8     kernel32:KERNEL32.dll
 0002:00000100       __imp_RtlLookupFunctionEntry 0000000180062100     kernel32:KERNEL32.dll
 0002:00000108       __imp_RtlCaptureContext    0000000180062108     kernel32:KERNEL32.dll
 0002:00000110       __imp_WideCharToMultiByte  0000000180062110     kernel32:KERNEL32.dll
 0002:00000118       __imp_MultiByteToWideChar  0000000180062118     kernel32:KERNEL32.dll
 0002:00000120       __imp_RaiseException       0000000180062120     kernel32:KERNEL32.dll
 0002:00000128       __imp_IsDebuggerPresent    0000000180062128     kernel32:KERNEL32.dll
 0002:00000130       __imp_GetCurrentThreadId   0000000180062130     kernel32:KERNEL32.dll
 0002:00000138       __imp_GetModuleHandleW     0000000180062138     kernel32:KERNEL32.dll
 0002:00000140       \177KERNEL32_NULL_THUNK_DATA 0000000180062140     kernel32:KERNEL32.dll
 0002:00000148       __imp_memcmp               0000000180062148     vcruntimed:VCRUNTIME140D.dll
 0002:00000150       __imp_memmove              0000000180062150     vcruntimed:VCRUNTIME140D.dll
 0002:00000158       __imp__purecall            0000000180062158     vcruntimed:VCRUNTIME140D.dll
 0002:00000160       __imp___C_specific_handler_noexcept 0000000180062160     vcruntimed:VCRUNTIME140D.dll
 0002:00000168       __imp___C_specific_handler 0000000180062168     vcruntimed:VCRUNTIME140D.dll
 0002:00000170       __imp___vcrt_GetModuleFileNameW 0000000180062170     vcruntimed:VCRUNTIME140D.dll
 0002:00000178       __imp___vcrt_GetModuleHandleW 0000000180062178     vcruntimed:VCRUNTIME140D.dll
 0002:00000180       __imp___vcrt_LoadLibraryExW 0000000180062180     vcruntimed:VCRUNTIME140D.dll
 0002:00000188       __imp___std_exception_copy 0000000180062188     vcruntimed:VCRUNTIME140D.dll
 0002:00000190       __imp___std_exception_destroy 0000000180062190     vcruntimed:VCRUNTIME140D.dll
 0002:00000198       __imp__CxxThrowException   0000000180062198     vcruntimed:VCRUNTIME140D.dll
 0002:000001a0       __imp___std_type_info_destroy_list 00000001800621a0     vcruntimed:VCRUNTIME140D.dll
 0002:000001a8       __imp___current_exception  00000001800621a8     vcruntimed:VCRUNTIME140D.dll
 0002:000001b0       __imp___current_exception_context 00000001800621b0     vcruntimed:VCRUNTIME140D.dll
 0002:000001b8       __imp_memcpy               00000001800621b8     vcruntimed:VCRUNTIME140D.dll
 0002:000001c0       __imp_memset               00000001800621c0     vcruntimed:VCRUNTIME140D.dll
 0002:000001c8       \177VCRUNTIME140D_NULL_THUNK_DATA 00000001800621c8     vcruntimed:VCRUNTIME140D.dll
 0002:000001d0       __imp___CxxFrameHandler4   00000001800621d0     vcruntimed:VCRUNTIME140_1D.dll
 0002:000001d8       \177VCRUNTIME140_1D_NULL_THUNK_DATA 00000001800621d8     vcruntimed:VCRUNTIME140_1D.dll
 0002:000001e0       __imp__free_dbg            00000001800621e0     ucrtd:ucrtbased.dll
 0002:000001e8       __imp__wmakepath_s         00000001800621e8     ucrtd:ucrtbased.dll
 0002:000001f0       __imp__wsplitpath_s        00000001800621f0     ucrtd:ucrtbased.dll
 0002:000001f8       __imp_wcscpy_s             00000001800621f8     ucrtd:ucrtbased.dll
 0002:00000200       __imp__seh_filter_dll      0000000180062200     ucrtd:ucrtbased.dll
 0002:00000208       __imp__configure_narrow_argv 0000000180062208     ucrtd:ucrtbased.dll
 0002:00000210       __imp__initialize_narrow_environment 0000000180062210     ucrtd:ucrtbased.dll
 0002:00000218       __imp__initialize_onexit_table 0000000180062218     ucrtd:ucrtbased.dll
 0002:00000220       __imp__register_onexit_function 0000000180062220     ucrtd:ucrtbased.dll
 0002:00000228       __imp__initterm            0000000180062228     ucrtd:ucrtbased.dll
 0002:00000230       __imp__crt_atexit          0000000180062230     ucrtd:ucrtbased.dll
 0002:00000238       __imp__crt_at_quick_exit   0000000180062238     ucrtd:ucrtbased.dll
 0002:00000240       __imp__cexit               0000000180062240     ucrtd:ucrtbased.dll
 0002:00000248       __imp_terminate            0000000180062248     ucrtd:ucrtbased.dll
 0002:00000250       __imp_strcat_s             0000000180062250     ucrtd:ucrtbased.dll
 0002:00000258       __imp__ftime64_s           0000000180062258     ucrtd:ucrtbased.dll
 0002:00000260       __imp_strftime             0000000180062260     ucrtd:ucrtbased.dll
 0002:00000268       __imp__localtime64_s       0000000180062268     ucrtd:ucrtbased.dll
 0002:00000270       __imp_strlen               0000000180062270     ucrtd:ucrtbased.dll
 0002:00000278       __imp_strncpy_s            0000000180062278     ucrtd:ucrtbased.dll
 0002:00000280       __imp__initterm_e          0000000180062280     ucrtd:ucrtbased.dll
 0002:00000288       __imp___stdio_common_vsprintf_s 0000000180062288     ucrtd:ucrtbased.dll
 0002:00000290       __imp_strcpy_s             0000000180062290     ucrtd:ucrtbased.dll
 0002:00000298       __imp__CrtDbgReportW       0000000180062298     ucrtd:ucrtbased.dll
 0002:000002a0       __imp__CrtDbgReport        00000001800622a0     ucrtd:ucrtbased.dll
 0002:000002a8       __imp_ceil                 00000001800622a8     ucrtd:ucrtbased.dll
 0002:000002b0       __imp_fopen_s              00000001800622b0     ucrtd:ucrtbased.dll
 0002:000002b8       __imp___acrt_iob_func      00000001800622b8     ucrtd:ucrtbased.dll
 0002:000002c0       __imp_log                  00000001800622c0     ucrtd:ucrtbased.dll
 0002:000002c8       __imp__wassert             00000001800622c8     ucrtd:ucrtbased.dll
 0002:000002d0       __imp_malloc               00000001800622d0     ucrtd:ucrtbased.dll
 0002:000002d8       __imp_free                 00000001800622d8     ucrtd:ucrtbased.dll
 0002:000002e0       __imp___stdio_common_vsnprintf_s 00000001800622e0     ucrtd:ucrtbased.dll
 0002:000002e8       __imp_fwrite               00000001800622e8     ucrtd:ucrtbased.dll
 0002:000002f0       __imp_fseek                00000001800622f0     ucrtd:ucrtbased.dll
 0002:000002f8       __imp_fflush               00000001800622f8     ucrtd:ucrtbased.dll
 0002:00000300       __imp__callnewh            0000000180062300     ucrtd:ucrtbased.dll
 0002:00000308       __imp__execute_onexit_table 0000000180062308     ucrtd:ucrtbased.dll
 0002:00000310       __imp_fclose               0000000180062310     ucrtd:ucrtbased.dll
 0002:00000318       __imp___stdio_common_vfprintf 0000000180062318     ucrtd:ucrtbased.dll
 0002:00000320       \177ucrtbased_NULL_THUNK_DATA 0000000180062320     ucrtd:ucrtbased.dll
 0002:00000328       __guard_check_icall_fptr   0000000180062328     MSVCRTD:guard_support.obj
 0002:00000330       __guard_xfg_check_icall_fptr 0000000180062330     MSVCRTD:guard_support.obj
 0002:00000338       __guard_dispatch_icall_fptr 0000000180062338     MSVCRTD:guard_support.obj
 0002:00000340       __guard_xfg_dispatch_icall_fptr 0000000180062340     MSVCRTD:guard_support.obj
 0002:00000348       __guard_xfg_table_dispatch_icall_fptr 0000000180062348     MSVCRTD:guard_support.obj
 0002:00000350       __xc_a                     0000000180062350     MSVCRTD:initializers.obj
 0002:00000358       __xc_z                     0000000180062358     MSVCRTD:initializers.obj
 0002:00000360       __xi_a                     0000000180062360     MSVCRTD:initializers.obj
 0002:00000368       __xi_z                     0000000180062368     MSVCRTD:initializers.obj
 0002:00000370       __xp_a                     0000000180062370     MSVCRTD:initializers.obj
 0002:00000378       __xp_z                     0000000180062378     MSVCRTD:initializers.obj
 0002:00000380       __xt_a                     0000000180062380     MSVCRTD:initializers.obj
 0002:00000388       __xt_z                     0000000180062388     MSVCRTD:initializers.obj
 0002:00000390       ?g_ksLevelLimits@WelsCommon@@3QBUTagLevelLimits@1@B 0000000180062390     common_tables.obj
 0002:000005b0       ?g_kuiLevelMaps@WelsCommon@@3QBIB 00000001800625b0     common_tables.obj
 0002:000005f8       ?g_kuiMbCountScan4Idx@WelsCommon@@3QBEB 00000001800625f8     common_tables.obj
 0002:00000610       ?g_kuiCache30ScanIdx@WelsCommon@@3QBEB 0000000180062610     common_tables.obj
 0002:00000620       ?g_kuiCache48CountScan4Idx@WelsCommon@@3QBEB 0000000180062620     common_tables.obj
 0002:00000640       ?g_kuiMatrixV@WelsCommon@@3QAY177$$CBEA 0000000180062640     common_tables.obj
 0002:000007c0       ?g_kuiDequantScaling4x4Default@WelsCommon@@3QAY0BA@$$CBEA 00000001800627c0     common_tables.obj
 0002:000007e0       ?g_kuiDequantScaling8x8Default@WelsCommon@@3QAY0EA@$$CBEA 00000001800627e0     common_tables.obj
 0002:00000860       ?g_kuiDequantCoeff@WelsCommon@@3QAY07$$CBGA 0000000180062860     common_tables.obj
 0002:00000ba0       ?g_kuiDequantCoeff8x8@WelsCommon@@3QAY0EA@$$CBGA 0000000180062ba0     common_tables.obj
 0002:000025a0       ?g_kuiChromaQpTable@WelsCommon@@3QBEB 00000001800645a0     common_tables.obj
 0002:000025e0       ?g_kuiCabacRangeLps@WelsCommon@@3QAY03$$CBEA 00000001800645e0     common_tables.obj
 0002:000026e0       ?g_kiCabacGlobalContextIdx@WelsCommon@@3QAY131$$CBCA 00000001800646e0     common_tables.obj
 0002:00003540       ?g_kuiStateTransTable@WelsCommon@@3QAY01$$CBEA 0000000180065540     common_tables.obj
 0002:000035c0       ?g_kuiGolombUELength@WelsCommon@@3QBIB 00000001800655c0     common_tables.obj
 0002:000039c0       ?g_keTypeMap@WelsCommon@@3QAY01$$CBW4EVclType@1@A 00000001800659c0     common_tables.obj
 0002:000044c8       ??_7CMemoryAlign@WelsCommon@@6B@ 00000001800664c8     memory_align.obj
 0002:000044d0       ??_C@_1NI@LLALHCFK@?$AAC?$AA?3?$AA?2?$AAG?$AAi?$AAt?$AA?2?$AAI?$AAm?$AAm?$AAe?$AAr?$AAs?$AAi?$AAv@ 00000001800664d0     memory_align.obj
 0002:000045a8       ??_C@_1DG@HMECEOKM@?$AAm?$AA_?$AAn?$AAM?$AAe?$AAm?$AAo?$AAr?$AAy?$AAU?$AAs?$AAa?$AAg?$AAe?$AAI@ 00000001800665a8     memory_align.obj
 0002:00004690       ??_C@_0BP@BLKOEBMA@?$FLOpenH264?$FN?5this?5?$DN?50x?$CFp?0?5Error?3@ 0000000180066690     utils.obj
 0002:000046b0       ??_C@_0CB@EKBBAPMG@?$FLOpenH264?$FN?5this?5?$DN?50x?$CFp?0?5Warning@ 00000001800666b0     utils.obj
 0002:000046d8       ??_C@_0BO@FMOBNNNK@?$FLOpenH264?$FN?5this?5?$DN?50x?$CFp?0?5Info?3@ 00000001800666d8     utils.obj
 0002:000046f8       ??_C@_0BP@OGKDDJLF@?$FLOpenH264?$FN?5this?5?$DN?50x?$CFp?0?5Debug?3@ 00000001800666f8     utils.obj
 0002:00004718       ??_C@_0CA@FGEFMPLG@?$FLOpenH264?$FN?5this?5?$DN?50x?$CFp?0?5Detail?3@ 0000000180066718     utils.obj
 0002:00004738       __real@4024000000000000    0000000180066738     utils.obj
 0002:00004740       __real@40efc02000000000    0000000180066740     utils.obj
 0002:00004748       __real@42c7fae1            0000000180066748     utils.obj
 0002:0000474c       __real@bf800000            000000018006674c     utils.obj
 0002:00004810       ??_C@_03OFAPEBGM@?$CFs?6@  0000000180066810     welsCodecTrace.obj
 0002:00004fe0       ??_C@_0GB@LOKNGAIJ@parse_nal?$CI?$CJ?0?5no?5exist?5Sequence?5@ 0000000180066fe0     au_parser.obj
 0002:00005050       ??_C@_0GA@CAFCOLMN@parse_nal?$CI?$CJ?0?5no?5exist?5Picture?5P@ 0000000180067050     au_parser.obj
 0002:000050b0       ??_C@_0FP@HNIAOILE@ParseNalHeader?$CI?$CJ?0?5no?5exist?5Para@ 00000001800670b0     au_parser.obj
 0002:00005110       ??_C@_0GI@BAKBDDMH@ParseNalHeader?$CI?$CJ?5in?5Prefix?5Nal?5@ 0000000180067110     au_parser.obj
 0002:00005178       ??_C@_0DI@EAFCANEF@NAL_UNIT_PREFIX?3?5DecInitBits?$CI?$CJ?5@ 0000000180067178     au_parser.obj
 0002:000051b0       ??_C@_0CI@EHIOLJPC@MemGetNextNal?$CI?$CJ?5fail?5due?5out?5of@ 00000001800671b0     au_parser.obj
 0002:000051d8       ??_C@_0DL@EIJACMNC@ParseNalHeader?$CI?$CJ?3uiQualityId?5?$CI?$CF@ 00000001800671d8     au_parser.obj
 0002:00005220       ??_C@_0EC@PJOMFNMG@ParseNalHeader?$CI?$CJ?3bUseRefBasePic@ 0000000180067220     au_parser.obj
 0002:00005268       ??_C@_0DN@KBHACLEL@NAL_UNIT_CODED_SLICE?3?5DecInitBi@ 0000000180067268     au_parser.obj
 0002:000052b0       ??_C@_0EN@NFKNMDKH@DecodeSpsSvcExt?$CI?$CJ?3extended_spat@ 00000001800672b0     au_parser.obj
 0002:00005300       ??_C@_0DD@KPKMGCGM@invalid?5syntax?5seq_scaled_ref_l@ 0000000180067300     au_parser.obj
 0002:00005338       ??_C@_0DC@BHPFHNPP@invalid?5syntax?5seq_scaled_ref_l@ 0000000180067338     au_parser.obj
 0002:00005370       ??_C@_0DE@LLMOJGFP@invalid?5syntax?5seq_scaled_ref_l@ 0000000180067370     au_parser.obj
 0002:000053a8       ??_C@_0DF@KLAPGMMB@invalid?5syntax?5seq_scaled_ref_l@ 00000001800673a8     au_parser.obj
 0002:000053e0       ??_C@_0BL@POHHNFNM@?5iSpsId?5is?5out?5of?5range?$CB?5?6@ 00000001800673e0     au_parser.obj
 0002:00005400       ??_C@_0BN@NFHPHABB@ParseSps?$CI?$CJ?3?5level_idx?5?$CI?$CFd?$CJ?4?6@ 0000000180067400     au_parser.obj
 0002:00005420       ??_C@_0DC@BGKOEIEJ@ParseSps?$CI?$CJ?3?5chroma_format_idc?5?$CI@ 0000000180067420     au_parser.obj
 0002:00005458       ??_C@_0DG@HFCOPIJE@ParseSps?$CI?$CJ?3?5bit_depth_luma?5?$CI?$CFd?$CJ@ 0000000180067458     au_parser.obj
 0002:00005490       ??_C@_0DJ@LDEEHLFO@ParseSps?$CI?$CJ?3?5bit_depth_chroma?5?$CI?$CF@ 0000000180067490     au_parser.obj
 0002:000054d0       ??_C@_0CM@OKOIGDF@invalid?5syntax?5log2_max_frame_n@ 00000001800674d0     au_parser.obj
 0002:00005500       ??_C@_0DE@PBIIDFAK@invalid?5syntax?5log2_max_pic_ord@ 0000000180067500     au_parser.obj
 0002:00005538       ??_C@_0DI@MAGIFIAM@invalid?5syntax?5num_ref_frames_i@ 0000000180067538     au_parser.obj
 0002:00005570       ??_C@_0CD@JJPGNLNN@?5illegal?5pic_order_cnt_type?3?5?$CFd@ 0000000180067570     au_parser.obj
 0002:00005598       ??_C@_0BO@EBKDJGNF@pic_width_in_mbs?$CI?$CFd?$CJ?5invalid?$CB@ 0000000180067598     au_parser.obj
 0002:000055b8       ??_C@_0DA@PJIALIOP@?5the?5pic_width_in_mbs?5exceeds?5t@ 00000001800675b8     au_parser.obj
 0002:000055e8       ??_C@_0BP@GODJOMJA@pic_height_in_mbs?$CI?$CFd?$CJ?5invalid?$CB@ 00000001800675e8     au_parser.obj
 0002:00005608       ??_C@_0DB@IHCDFECM@?5the?5pic_height_in_mbs?5exceeds?5@ 0000000180067608     au_parser.obj
 0002:00005640       ??_C@_0DB@ENMCHEM@?5the?5total?5count?5of?5mb?5exceeds?5@ 0000000180067640     au_parser.obj
 0002:00005678       ??_C@_0CF@IANGIGCC@invalid?5syntax?5max_num_ref_fram@ 0000000180067678     au_parser.obj
 0002:000056a0       ??_C@_0CK@KOILGALN@?5max_num_ref_frames?5exceeds?5lev@ 00000001800676a0     au_parser.obj
 0002:000056d0       ??_C@_0DE@IPCAANHO@ParseSps?$CI?$CJ?3?5frame_mbs_only_flag@ 00000001800676d0     au_parser.obj
 0002:00005710       ??_C@_0EB@OHALIAFP@frame_crop_left_offset?5?$CL?5frame_@ 0000000180067710     au_parser.obj
 0002:00005760       ??_C@_0EA@KINLHCIC@frame_crop_top_offset?5?$CL?5frame_c@ 0000000180067760     au_parser.obj
 0002:000057a0       ??_C@_0CC@IJHNCJBO@Temp?5buffer?5for?5parse?5only?5usag@ 00000001800677a0     au_parser.obj
 0002:000057c8       ??_C@_0BM@PLCHKFCN@pBsBuf?5for?5parse?5only?5usage@ 00000001800677c8     au_parser.obj
 0002:000057e8       ??_C@_0DJ@LALPCCHF@ParsePps?$CI?$CJ?3?5slice_group_map_typ@ 00000001800677e8     au_parser.obj
 0002:00005828       ??_C@_0DF@JANLPICE@ParsePps?$CI?$CJ?3?5weighted_bipred_idc@ 0000000180067828     au_parser.obj
 0002:00005860       ??_C@_0CL@MGPAHJMG@invalid?5syntax?5pic_init_qp_minu@ 0000000180067860     au_parser.obj
 0002:00005890       ??_C@_0CL@CMHGKEKE@invalid?5syntax?5pic_init_qs_minu@ 0000000180067890     au_parser.obj
 0002:000058c0       ??_C@_0CJ@OGFPONDF@invalid?5syntax?5chroma_qp_index_@ 00000001800678c0     au_parser.obj
 0002:00006790       ??_C@_08KPODANBH@PPicBuff@ 0000000180068790     decoder.obj
 0002:000067a0       ??_C@_09ODAJDAMD@PPicture?$CK@ 00000001800687a0     decoder.obj
 0002:000067b0       ??_C@_0BC@JIMELPIC@pPicOldBuf?9?$DOqueue@ 00000001800687b0     decoder.obj
 0002:000067c8       ??_C@_0L@IMKNOHBP@pPicOldBuf@ 00000001800687c8     decoder.obj
 0002:000067d8       ??_C@_0P@EDMHLPIA@pPicBuf?9?$DOqueue@ 00000001800687d8     decoder.obj
 0002:000067e8       ??_C@_07LELBPNJC@pPicBuf@  00000001800687e8     decoder.obj
 0002:000067f0       ??_C@_0HA@BHNDLOPA@WelsRequestMem?$CI?$CJ?3?5memory?5re?9all@ 00000001800687f0     decoder.obj
 0002:00006860       ??_C@_0IB@HMOAJABB@WelsRequestMem?$CI?$CJ?3?5memory?5re?9all@ 0000000180068860     decoder.obj
 0002:000068f0       ??_C@_0EC@NLBNPKMM@WelsRequestMem?$CI?$CJ?3?5memory?5alloc?5@ 00000001800688f0     decoder.obj
 0002:00006938       ??_C@_0BG@NINLLLNI@pCtx?9?$DOpCabacDecEngine@ 0000000180068938     decoder.obj
 0002:00006950       ??_C@_0P@DDPBGGAF@SDecodingParam@ 0000000180068950     decoder.obj
 0002:00006960       ??_C@_0P@HJEFJEKP@eVideoType?3?5?$CFd@ 0000000180068960     decoder.obj
 0002:00006970       ??_C@_0DE@HMCOBIOB@Support?5I420?5output?5only?5for?5no@ 0000000180068970     decoder.obj
 0002:000069b0       ??_C@_0EG@IGBOBINO@SyncPictureResolutionExt?$CI?$CJ?3?3Wel@ 00000001800689b0     decoder.obj
 0002:00006a00       ??_C@_0EO@NIDGJFFI@SyncPictureResolutionExt?$CI?$CJ?3?3Ini@ 0000000180068a00     decoder.obj
 0002:00006a50       ??_C@_0DN@BCNAFGCI@SyncPictureResolutionExt?$CI?$CJ?0?5ove@ 0000000180068a50     decoder.obj
 0002:00006f50       ??_C@_0KA@BMIEGDEH@DecodeFrameConstruction?$CI?$CJ?3?5will@ 0000000180068f50     decoder_core.obj
 0002:00006ff0       ??_C@_0HC@JEKLLIBF@DecodeFrameConstruction?$CI?$CJ?3?5iTot@ 0000000180068ff0     decoder_core.obj
 0002:00007068       ??_C@_0DO@MJBDJKOK@DecodeFrameConstruction?$CI?$CJ?3New?5s@ 0000000180069068     decoder_core.obj
 0002:000070a8       ??_C@_0BF@KNGJKOMK@pCtx?9?$DOsRawData?4pHead@ 00000001800690a8     decoder_core.obj
 0002:000070c0       ??_C@_0BE@MDNHFFNJ@pCtx?9?$DOpParserBsInfo@ 00000001800690c0     decoder_core.obj
 0002:000070d8       ??_C@_0BO@EALGIAGF@pCtx?9?$DOpParserBsInfo?9?$DOpDstBuff@ 00000001800690d8     decoder_core.obj
 0002:000070f8       ??_C@_0BH@DNMEPHNH@pCtx?9?$DOsSavedData?4pHead@ 00000001800690f8     decoder_core.obj
 0002:00007110       ??_C@_0DL@LPGDKOHN@Max?5AU?5size?5exceeded?4?5Allowed?5s@ 0000000180069110     decoder_core.obj
 0002:00007150       ??_C@_0N@FJNKDKJE@pCtx?9?$DOpParam@ 0000000180069150     decoder_core.obj
 0002:00007160       ??_C@_0BG@LIOHNOKN@pCtx?9?$DOsRawData?9?$DOpHead@ 0000000180069160     decoder_core.obj
 0002:00007178       ??_C@_0BI@NLHBBPCN@pCtx?9?$DOsSavedData?9?$DOpHead@ 0000000180069178     decoder_core.obj
 0002:00007190       ??_C@_0CE@CHHHOILL@invalid?5syntax?5first_mb_in_slic@ 0000000180069190     decoder_core.obj
 0002:000071b8       ??_C@_0CK@ICKDIBEA@slice?5type?5too?5large?5?$CI?$CFd?$CJ?5at?5fi@ 00000001800691b8     decoder_core.obj
 0002:000071e8       ??_C@_0DC@JJJIIPPA@ParseSliceHeaderSyntaxs?$CI?$CJ?3?5B?5sl@ 00000001800691e8     decoder_core.obj
 0002:00007220       ??_C@_0CI@BFEPLJGC@Invalid?5slice?5type?$CI?$CFd?$CJ?5in?5IDR?5p@ 0000000180069220     decoder_core.obj
 0002:00007248       ??_C@_0BI@MHEIDHJC@Invalid?5slice?5type?$CI?$CFd?$CJ?4@ 0000000180069248     decoder_core.obj
 0002:00007260       ??_C@_0CG@EHNFJHFC@invalid?5syntax?5iPpsId?5out?5of?5ra@ 0000000180069260     decoder_core.obj
 0002:00007288       ??_C@_0DN@NFBPHKMH@PPS?5id?5?$CI?$CFd?$CJ?5is?5invalid?0?5previou@ 0000000180069288     decoder_core.obj
 0002:000072c8       ??_C@_0BH@MNDDPHKC@Invalid?5PPS?5referenced@ 00000001800692c8     decoder_core.obj
 0002:000072e0       ??_C@_0EB@HIJBJMNC@Sub?5SPS?5id?5?$CI?$CFd?$CJ?5is?5invalid?0?5pre@ 00000001800692e0     decoder_core.obj
 0002:00007328       ??_C@_0DN@FDEIKNIG@SPS?5id?5?$CI?$CFd?$CJ?5is?5invalid?0?5previou@ 0000000180069328     decoder_core.obj
 0002:00007368       ??_C@_0DG@GJPJIMOJ@slice_type?5?$CI?$CFd?$CJ?5not?5supported?5f@ 0000000180069368     decoder_core.obj
 0002:000073a0       ??_C@_0BM@OFMDEJHC@non?5existing?5SPS?5referenced@ 00000001800693a0     decoder_core.obj
 0002:000073c0       ??_C@_0EE@IOCJFGPO@ParseSliceHeaderSyntaxs?$CI?$CJ?3?5fram@ 00000001800693c0     decoder_core.obj
 0002:00007410       ??_C@_0FB@EAMNCFPO@ParseSliceHeaderSyntaxs?$CI?$CJ?0?5inva@ 0000000180069410     decoder_core.obj
 0002:00007468       ??_C@_0BN@FFHJHECB@invalid?5syntax?5idr_pic_id?5?$CFd@ 0000000180069468     decoder_core.obj
 0002:00007488       ??_C@_0CE@BICCMBGF@invalid?5syntax?5redundant_pic_cn@ 0000000180069488     decoder_core.obj
 0002:000074b0       ??_C@_0CB@DAOEGLJO@Redundant?5picture?5not?5supported@ 00000001800694b0     decoder_core.obj
 0002:000074d8       ??_C@_0CP@BIOMAPM@invalid?5syntax?5num_ref_idx_l0_a@ 00000001800694d8     decoder_core.obj
 0002:00007508       ??_C@_0BD@OMCAODCC@reference?5overflow@ 0000000180069508     decoder_core.obj
 0002:00007520       ??_C@_0CK@EKCFPNFG@invalid?5ref?5pPic?5list?5reorderin@ 0000000180069520     decoder_core.obj
 0002:00007550       ??_C@_0CF@KNDGCHDG@invalid?5weighted?5prediction?5syn@ 0000000180069550     decoder_core.obj
 0002:00007580       ??_C@_0FJ@BPHLKFNE@ParseSliceHeaderSyntaxs?$CI?$CJ?3?5bUse@ 0000000180069580     decoder_core.obj
 0002:000075e0       ??_C@_0CB@CKGCMAJJ@invalid?5syntax?5cabac_init_idc?5?$CF@ 00000001800695e0     decoder_core.obj
 0002:00007608       ??_C@_0BD@NMOOLEOA@QP?5?$CFd?5out?5of?5range@ 0000000180069608     decoder_core.obj
 0002:00007620       ??_C@_0BE@OEIEAPOB@SP?1SI?5not?5supported@ 0000000180069620     decoder_core.obj
 0002:00007638       ??_C@_0DE@HPIOOFCA@disable_deblock_filter_idc?5?$CI?$CFd?$CJ@ 0000000180069638     decoder_core.obj
 0002:00007670       ??_C@_0DB@NECFCAGB@invalid?5syntax?5slice_alpha_c0_o@ 0000000180069670     decoder_core.obj
 0002:000076a8       ??_C@_0CN@NBEDDHLN@invalid?5syntax?5slice_beta_offse@ 00000001800696a8     decoder_core.obj
 0002:000076e0       ??_C@_0EA@FMNLBFBF@disable_inter_layer_deblock_fil@ 00000001800696e0     decoder_core.obj
 0002:00007720       ??_C@_0DH@ODFGCLPB@invalid?5syntax?5inter_layer_alph@ 0000000180069720     decoder_core.obj
 0002:00007758       ??_C@_0DJ@EHGPLJKJ@invalid?5syntax?5inter_layer_slic@ 0000000180069758     decoder_core.obj
 0002:00007798       ??_C@_0BD@EJIJNEBD@MGS?5not?5supported?4@ 0000000180069798     decoder_core.obj
 0002:000077b0       ??_C@_0CD@FPMCCIIF@bSliceSkipFlag?5?$DN?$DN?51?5not?5support@ 00000001800697b0     decoder_core.obj
 0002:000077e0       ??_C@_0EH@CKLDGMAP@uiScanIdxStart?5?$CI?$CFd?$CJ?5?$CB?$DN?50?5and?5ui@ 00000001800697e0     decoder_core.obj
 0002:00007830       ??_C@_0EM@LNGKOAO@UpdateAccessUnit?$CI?$CJ?3?3?3?3?3Key?5fram@ 0000000180069830     decoder_core.obj
 0002:00007880       ??_C@_08BFIGNEOM@PDqLayer@ 0000000180069880     decoder_core.obj
 0002:00007890       ??_C@_0BE@PIGEHEPA@pCtx?9?$DOsMb?4pMbType?$FL?$FN@ 0000000180069890     decoder_core.obj
 0002:000078a8       ??_C@_0BC@IGFFLAKL@pCtx?9?$DOsMb?4pMv?$FL?$FN?$FL?$FN@ 00000001800698a8     decoder_core.obj
 0002:000078c0       ??_C@_0BI@IGLOPADJ@pCtx?9?$DOsMb?4pRefIndex?$FL?$FN?$FL?$FN@ 00000001800698c0     decoder_core.obj
 0002:000078d8       ??_C@_0BE@NAHJJJOP@pCtx?9?$DOsMb?4pLumaQp?$FL?$FN@ 00000001800698d8     decoder_core.obj
 0002:000078f0       ??_C@_0CM@GJGFHDFA@pCtx?9?$DOsMb?4pNoSubMbPartSizeLessT@ 00000001800698f0     decoder_core.obj
 0002:00007920       ??_C@_0CC@CCDPMFCD@pCtx?9?$DOsMb?4pTransformSize8x8Flag@ 0000000180069920     decoder_core.obj
 0002:00007948       ??_C@_0BG@KHDDOGKE@pCtx?9?$DOsMb?4pChromaQp?$FL?$FN@ 0000000180069948     decoder_core.obj
 0002:00007960       ??_C@_0BD@BFBNGPHP@pCtx?9?$DOsMb?4pMvd?$FL?$FN?$FL?$FN@ 0000000180069960     decoder_core.obj
 0002:00007978       ??_C@_0BD@CMIKOLFK@pCtx?9?$DOsMb?4pCbfDc?$FL?$FN@ 0000000180069978     decoder_core.obj
 0002:00007990       ??_C@_0BB@LHJEMGEM@pCtx?9?$DOsMb?4pNzc?$FL?$FN@ 0000000180069990     decoder_core.obj
 0002:000079a8       ??_C@_0BD@MMKIICM@pCtx?9?$DOsMb?4pNzcRs?$FL?$FN@ 00000001800699a8     decoder_core.obj
 0002:000079c0       ??_C@_0BK@GIEPDKFG@pCtx?9?$DOsMb?4pScaledTCoeff?$FL?$FN@ 00000001800699c0     decoder_core.obj
 0002:000079e0       ??_C@_0BL@PIMIHEN@pCtx?9?$DOsMb?4pIntraPredMode?$FL?$FN@ 00000001800699e0     decoder_core.obj
 0002:00007a00       ??_C@_0BP@HOLLOEBC@pCtx?9?$DOsMb?4pIntra4x4FinalMode?$FL?$FN@ 0000000180069a00     decoder_core.obj
 0002:00007a20       ??_C@_0BN@NCGMEGPO@pCtx?9?$DOsMb?4pIntraNxNAvailFlag@ 0000000180069a20     decoder_core.obj
 0002:00007a40       ??_C@_0BM@HBHCLMAE@pCtx?9?$DOsMb?4pChromaPredMode?$FL?$FN@ 0000000180069a40     decoder_core.obj
 0002:00007a60       ??_C@_0BB@BJDGPBKA@pCtx?9?$DOsMb?4pCbp?$FL?$FN@ 0000000180069a60     decoder_core.obj
 0002:00007a78       ??_C@_0BH@OACHNENB@pCtx?9?$DOsMb?4pSubMbType?$FL?$FN@ 0000000180069a78     decoder_core.obj
 0002:00007a90       ??_C@_0BG@IKGJENEN@pCtx?9?$DOsMb?4pSliceIdc?$FL?$FN@ 0000000180069a90     decoder_core.obj
 0002:00007aa8       ??_C@_0BO@DFDKFE@pCtx?9?$DOsMb?4pResidualPredFlag?$FL?$FN@ 0000000180069aa8     decoder_core.obj
 0002:00007ac8       ??_C@_0CF@DDOEGOMP@pCtx?9?$DOsMb?4pInterPredictionDoneF@ 0000000180069ac8     decoder_core.obj
 0002:00007af0       ??_C@_0CE@NJJMEBHD@pCtx?9?$DOsMb?4pMbCorrectlyDecodedFl@ 0000000180069af0     decoder_core.obj
 0002:00007b18       ??_C@_0BM@GHMHGMIO@pCtx?9?$DOpMbRefConcealedFlag?$FL?$FN@ 0000000180069b18     decoder_core.obj
 0002:00007b38       ??_C@_0CA@BLNLCLJE@pCtx?9?$DOsMb?4pMbRefConcealedFlag?$FL?$FN@ 0000000180069b38     decoder_core.obj
 0002:00007b58       ??_C@_03PEDDONNE@pDq@      0000000180069b58     decoder_core.obj
 0002:00007b60       ??_C@_0DF@EJPHOHJC@sync?5picture?5resolution?5ext?5fai@ 0000000180069b60     decoder_core.obj
 0002:00007b98       ??_C@_0CE@MGJFEJCA@returned?5error?5from?5decoding?3?$FL0@ 0000000180069b98     decoder_core.obj
 0002:00007bc0       ??_C@_0EK@NFOMHFLC@DecodeCurrentAccessUnit?$CI?$CJ?3?3?3?3?3?3@ 0000000180069bc0     decoder_core.obj
 0002:00007c10       ??_C@_0EC@NCFPHOJK@DecodeCurrentAccessUnit?$CI?$CJ?0?5FmoP@ 0000000180069c10     decoder_core.obj
 0002:00007c60       ??_C@_0FH@CALKINBL@referencing?5pictures?5lost?5due?5f@ 0000000180069c60     decoder_core.obj
 0002:00007cc0       ??_C@_0FC@LMPBMKEH@reference?5picture?5introduced?5by@ 0000000180069cc0     decoder_core.obj
 0002:00007d20       ??_C@_0EH@PIDHBJEC@DecodeCurrentAccessUnit?$CI?$CJ?5faile@ 0000000180069d20     decoder_core.obj
 0002:00007d68       ??_C@_0BP@KICHJFHC@cur_frame?5?3?5?$CFd?7iCurrIdD?5?3?5?$CFd?6?5@ 0000000180069d68     decoder_core.obj
 0002:00007d88       ??_C@_0DG@GLIOPGMA@POC?3?5?$CD?$CFd?0?5FRAME?3?5?$CD?$CFd?0?5D?3?5?$CFd?0?5Q?3@ 0000000180069d88     decoder_core.obj
 0002:00007dc0       ?g_kuiScan8@WelsDec@@3QBEB 0000000180069dc0     decoder_data_tables.obj
 0002:00007dd8       ?g_kuiLumaDcZigzagScan@WelsDec@@3QBEB 0000000180069dd8     decoder_data_tables.obj
 0002:00007de8       ?g_kuiChromaDcScan@WelsDec@@3QBEB 0000000180069de8     decoder_data_tables.obj
 0002:00007dec       ?g_kNonZeroScanIdxC@WelsDec@@3QBEB 0000000180069dec     decoder_data_tables.obj
 0002:00007df0       ?g_kMbNonZeroCountIdx@WelsDec@@3QBEB 0000000180069df0     decoder_data_tables.obj
 0002:00007e08       ?g_kCacheNzcScanIdx@WelsDec@@3QBEB 0000000180069e08     decoder_data_tables.obj
 0002:00007e28       ?g_kCache26ScanIdx@WelsDec@@3QBEB 0000000180069e28     decoder_data_tables.obj
 0002:00007e38       ?g_kCache30ScanIdx@WelsDec@@3QBEB 0000000180069e38     decoder_data_tables.obj
 0002:00007e48       ?g_kuiScan4@WelsDec@@3QBEB 0000000180069e48     decoder_data_tables.obj
 0002:00007e58       ?g_kuiIntra4x4CbpTable@WelsDec@@3QBEB 0000000180069e58     decoder_data_tables.obj
 0002:00007e88       ?g_kuiIntra4x4CbpTable400@WelsDec@@3QBEB 0000000180069e88     decoder_data_tables.obj
 0002:00007e98       ?g_kuiInterCbpTable@WelsDec@@3QBEB 0000000180069e98     decoder_data_tables.obj
 0002:00007ec8       ?g_kuiInterCbpTable400@WelsDec@@3QBEB 0000000180069ec8     decoder_data_tables.obj
 0002:00007ed8       ?g_kuiVlcTable_0_1@WelsDec@@3QAY01$$CBEA 0000000180069ed8     decoder_data_tables.obj
 0002:00007ee0       ?g_kuiLeadingZeroTable@WelsDec@@3QBEB 0000000180069ee0     decoder_data_tables.obj
 0002:00008020       ?g_kuiVlcChromaTable@WelsDec@@3QAY01$$CBEA 000000018006a020     decoder_data_tables.obj
 0002:00008220       ?g_kuiVlcTable_0@WelsDec@@3QAY01$$CBEA 000000018006a220     decoder_data_tables.obj
 0002:00008420       ?g_kuiVlcTable_0_0@WelsDec@@3QAY01$$CBEA 000000018006a420     decoder_data_tables.obj
 0002:00008620       ?g_kuiVlcTable_0_2@WelsDec@@3QAY01$$CBEA 000000018006a620     decoder_data_tables.obj
 0002:00008624       ?g_kuiVlcTable_0_3@WelsDec@@3QAY01$$CBEA 000000018006a624     decoder_data_tables.obj
 0002:00008628       ?g_kuiVlcTable_1_2@WelsDec@@3QAY01$$CBEA 000000018006a628     decoder_data_tables.obj
 0002:00008630       ?g_kuiVlcTable_1@WelsDec@@3QAY01$$CBEA 000000018006a630     decoder_data_tables.obj
 0002:00008830       ?g_kuiVlcTable_1_0@WelsDec@@3QAY01$$CBEA 000000018006a830     decoder_data_tables.obj
 0002:000088b0       ?g_kuiVlcTable_1_1@WelsDec@@3QAY01$$CBEA 000000018006a8b0     decoder_data_tables.obj
 0002:000088c0       ?g_kuiVlcTable_1_3@WelsDec@@3QAY01$$CBEA 000000018006a8c0     decoder_data_tables.obj
 0002:000088c4       ?g_kuiVlcTable_2_4@WelsDec@@3QAY01$$CBEA 000000018006a8c4     decoder_data_tables.obj
 0002:000088c8       ?g_kuiVlcTable_2_0@WelsDec@@3QAY01$$CBEA 000000018006a8c8     decoder_data_tables.obj
 0002:000088d0       ?g_kuiVlcTable_2@WelsDec@@3QAY01$$CBEA 000000018006a8d0     decoder_data_tables.obj
 0002:00008ad0       ?g_kuiVlcTable_2_1@WelsDec@@3QAY01$$CBEA 000000018006aad0     decoder_data_tables.obj
 0002:00008ad8       ?g_kuiVlcTable_2_2@WelsDec@@3QAY01$$CBEA 000000018006aad8     decoder_data_tables.obj
 0002:00008ae0       ?g_kuiVlcTable_2_3@WelsDec@@3QAY01$$CBEA 000000018006aae0     decoder_data_tables.obj
 0002:00008ae8       ?g_kuiVlcTable_2_5@WelsDec@@3QAY01$$CBEA 000000018006aae8     decoder_data_tables.obj
 0002:00008aec       ?g_kuiVlcTable_2_6@WelsDec@@3QAY01$$CBEA 000000018006aaec     decoder_data_tables.obj
 0002:00008af0       ?g_kuiVlcTable_2_7@WelsDec@@3QAY01$$CBEA 000000018006aaf0     decoder_data_tables.obj
 0002:00008af4       ?g_kuiVlcTableNeedMoreBitsThread@WelsDec@@3QBEB 000000018006aaf4     decoder_data_tables.obj
 0002:00008af8       ?g_kuiVlcTableMoreBitsCount0@WelsDec@@3QBEB 000000018006aaf8     decoder_data_tables.obj
 0002:00008b00       ?g_kuiVlcTable_3@WelsDec@@3QAY01$$CBEA 000000018006ab00     decoder_data_tables.obj
 0002:00008b80       ?g_kuiVlcTableMoreBitsCount1@WelsDec@@3QBEB 000000018006ab80     decoder_data_tables.obj
 0002:00008b84       ?g_kuiTotalZerosTable14@WelsDec@@3QAY01$$CBEA 000000018006ab84     decoder_data_tables.obj
 0002:00008b88       ?g_kuiVlcTableMoreBitsCount2@WelsDec@@3QBEB 000000018006ab88     decoder_data_tables.obj
 0002:00008b90       ?g_kuiNcMapTable@WelsDec@@3QBEB 000000018006ab90     decoder_data_tables.obj
 0002:00008ba8       ?g_kuiTotalZerosTable10@WelsDec@@3QAY01$$CBEA 000000018006aba8     decoder_data_tables.obj
 0002:00008bc8       ?g_kuiTotalZerosTable13@WelsDec@@3QAY01$$CBEA 000000018006abc8     decoder_data_tables.obj
 0002:00008bd0       ?g_kuiVlcTrailingOneTotalCoeffTable@WelsDec@@3QAY01$$CBEA 000000018006abd0     decoder_data_tables.obj
 0002:00008c50       ?g_kuiTotalZerosTable0@WelsDec@@3QAY01$$CBEA 000000018006ac50     decoder_data_tables.obj
 0002:00009050       ?g_kuiTotalZerosTable1@WelsDec@@3QAY01$$CBEA 000000018006b050     decoder_data_tables.obj
 0002:000090d0       ?g_kuiTotalZerosTable2@WelsDec@@3QAY01$$CBEA 000000018006b0d0     decoder_data_tables.obj
 0002:00009150       ?g_kuiTotalZerosTable3@WelsDec@@3QAY01$$CBEA 000000018006b150     decoder_data_tables.obj
 0002:00009190       ?g_kuiTotalZerosTable4@WelsDec@@3QAY01$$CBEA 000000018006b190     decoder_data_tables.obj
 0002:000091d0       ?g_kuiTotalZerosTable5@WelsDec@@3QAY01$$CBEA 000000018006b1d0     decoder_data_tables.obj
 0002:00009250       ?g_kuiTotalZerosTable6@WelsDec@@3QAY01$$CBEA 000000018006b250     decoder_data_tables.obj
 0002:000092d0       ?g_kuiTotalZerosTable7@WelsDec@@3QAY01$$CBEA 000000018006b2d0     decoder_data_tables.obj
 0002:00009350       ?g_kuiTotalZerosTable8@WelsDec@@3QAY01$$CBEA 000000018006b350     decoder_data_tables.obj
 0002:000093d0       ?g_kuiTotalZerosTable9@WelsDec@@3QAY01$$CBEA 000000018006b3d0     decoder_data_tables.obj
 0002:00009410       ?g_kuiTotalZerosTable11@WelsDec@@3QAY01$$CBEA 000000018006b410     decoder_data_tables.obj
 0002:00009430       ?g_kuiTotalZerosTable12@WelsDec@@3QAY01$$CBEA 000000018006b430     decoder_data_tables.obj
 0002:00009440       ?g_kuiTotalZerosBitNumMap@WelsDec@@3QBEB 000000018006b440     decoder_data_tables.obj
 0002:00009450       ?g_kuiTotalZerosChromaTable0@WelsDec@@3QAY01$$CBEA 000000018006b450     decoder_data_tables.obj
 0002:00009460       ?g_kuiTotalZerosChromaTable1@WelsDec@@3QAY01$$CBEA 000000018006b460     decoder_data_tables.obj
 0002:00009468       ?g_kuiTotalZerosChromaTable2@WelsDec@@3QAY01$$CBEA 000000018006b468     decoder_data_tables.obj
 0002:0000946c       ?g_kuiTotalZerosBitNumChromaMap@WelsDec@@3QBEB 000000018006b46c     decoder_data_tables.obj
 0002:00009470       ?g_kuiZeroLeftTable0@WelsDec@@3QAY01$$CBEA 000000018006b470     decoder_data_tables.obj
 0002:00009478       ?g_kuiZeroLeftTable1@WelsDec@@3QAY01$$CBEA 000000018006b478     decoder_data_tables.obj
 0002:00009480       ?g_kuiZeroLeftTable2@WelsDec@@3QAY01$$CBEA 000000018006b480     decoder_data_tables.obj
 0002:00009488       ?g_kuiZeroLeftTable3@WelsDec@@3QAY01$$CBEA 000000018006b488     decoder_data_tables.obj
 0002:00009498       ?g_kuiZeroLeftTable4@WelsDec@@3QAY01$$CBEA 000000018006b498     decoder_data_tables.obj
 0002:000094a8       ?g_kuiZeroLeftTable5@WelsDec@@3QAY01$$CBEA 000000018006b4a8     decoder_data_tables.obj
 0002:000094b8       ?g_kuiZeroLeftTable6@WelsDec@@3QAY01$$CBEA 000000018006b4b8     decoder_data_tables.obj
 0002:000094c8       ?g_kuiZeroLeftBitNumMap@WelsDec@@3QBEB 000000018006b4c8     decoder_data_tables.obj
 0002:0000a690       ??_C@_0FB@PFCMFNBG@WelsTargetSliceConstruction?$CI?$CJ?3?3@ 000000018006c690     decode_slice.obj
 0002:0000a6f0       ??_C@_0FA@MHHBDNOA@WelsTargetSliceConstruction?$CI?$CJ?3?3@ 000000018006c6f0     decode_slice.obj
 0002:0000a740       ??_C@_0DD@FNDCLBGH@WelsTargetMbConstruction?$CI?$CJ?3?3?3?3?3@ 000000018006c740     decode_slice.obj
 0002:0000a780       ??_C@_0EH@PPHLCEEI@WelsDecodeSlice?$CI?$CJ?3?3?3?3ILP?5flag?5e@ 000000018006c780     decode_slice.obj
 0002:0000a7c8       ??_C@_0DP@GAHEMPPM@iBaseModeFlag?5?$CI?$CFd?$CJ?5?$CB?$DN?50?0?5inter?9@ 000000018006c7c8     decode_slice.obj
 0002:0000a810       ??_C@_0GC@PABNJMAI@WelsDecodeMbCavlcISlice?$CI?$CJ?3?3?3?3pB@ 000000018006c810     decode_slice.obj
 0002:0000a878       ??_C@_0CG@OHEMFIBB@residual_pred_flag?5?$DN?51?5not?5supp@ 000000018006c878     decode_slice.obj
 0002:0000aa50       ??_C@_0CK@MIHKCFJK@DoErrorConFrameCopy?$CI?$CJ?3?3EC?5memcp@ 000000018006ca50     error_concealment.obj
 0002:0000aa80       ??_C@_0CK@ONKJOGLH@DoErrorConSliceCopy?$CI?$CJ?3?3EC?5memcp@ 000000018006ca80     error_concealment.obj
 0002:0000aab0       ??_C@_0CM@LCBGMBBI@DoErrorConSliceMVCopy?$CI?$CJ?3?3EC?5mem@ 000000018006cab0     error_concealment.obj
 0002:0000aae0       ??_C@_0BC@EJIDJFHL@_fmo?9?$DOpMbAllocMap@ 000000018006cae0     fmo.obj
 0002:0000aaf8       ??_C@_0BD@KEJDKJEE@pIter?9?$DOpMbAllocMap@ 000000018006caf8     fmo.obj
 0002:0000b9f0       ??_C@_0CG@LHNJBPKO@WelsInitRefList?$CI?$CJ?3?3EC?5memcpy?5ov@ 000000018006d9f0     manage_dec_ref.obj
 0002:0000ba18       ??_C@_0CO@HDIBPEFD@WelsInitRefList?$CI?$CJ?3?3PrefetchPic?5@ 000000018006da18     manage_dec_ref.obj
 0002:0000ba48       ??_C@_0DP@MEIIEGAL@WelsReorderRefList?$CI?$CJ?3?3?3?3BASE?5LA@ 000000018006da48     manage_dec_ref.obj
 0002:0000ba88       ??_C@_0DN@GGLDKIBD@MMCO_SHORT2UNUSED?3?5delete?5a?5emp@ 000000018006da88     manage_dec_ref.obj
 0002:0000bac8       ??_C@_0DL@CEMFNKHL@MMCO_LONG2UNUSED?3?5delete?5a?5empt@ 000000018006dac8     manage_dec_ref.obj
 0002:0000bb08       ??_C@_0DK@BBNJKCIJ@MMCO_LONG2LONG?3?5delete?5a?5empty?5@ 000000018006db08     manage_dec_ref.obj
 0002:0000bb48       ??_C@_0DP@ONMKIGIO@ex_mark_avc?$CI?$CJ?3?3?3MMCO_SHORT2LONG@ 000000018006db48     manage_dec_ref.obj
 0002:0000bb88       ??_C@_0DJ@MPMJPNLD@ex_mark_avc?$CI?$CJ?3?3?3MMCO_LONG?3?3?3LTR@ 000000018006db88     manage_dec_ref.obj
 0002:0000bbc8       ??_C@_0DM@PPLAENDK@No?5reference?5picture?5in?5short?5t@ 000000018006dbc8     manage_dec_ref.obj
 0002:0000bc08       ??_C@_0DK@JJMAFBLB@RemainOneBufferInDpbForEC?$CI?$CJ?3?5em@ 000000018006dc08     manage_dec_ref.obj
 0002:0000bcb0       ??_C@_0M@BFFCJMIL@Access?5Unit@ 000000018006dcb0     memmgr_nal_unit.obj
 0002:0000cbe0       ??_C@_0BO@EJIPFPII@invalid?5syntax?5vertical?5mv?5?$CFd@ 000000018006ebe0     parse_mb_syn_cabac.obj
 0002:0000d520       ??_C@_0DB@HIFPAKBN@inter?5parse?3?5iMotionPredFlag?5?$DN?5@ 000000018006f520     parse_mb_syn_cavlc.obj
 0002:0000d5a0       ??_C@_08LBIABIFO@PPicture@ 000000018006f5a0     pic_queue.obj
 0002:0000d5b0       ??_C@_0BA@EDAGFMPF@_pic?9?$DObuffer?$FL0?$FN@ 000000018006f5b0     pic_queue.obj
 0002:0000d5c0       ??_C@_0BB@JLKFIOMB@pPic?9?$DOpBuffer?$FL0?$FN@ 000000018006f5c0     pic_queue.obj
 0002:0000d5d4       ??_C@_04CNECPEE@pPic@      000000018006f5d4     pic_queue.obj
 0002:0000d8e8       ??_7ISVCDecoder@@6B@       000000018006f8e8     welsDecoderExt.obj
 0002:0000d940       ??_7CWelsDecoder@WelsDec@@6B@ 000000018006f940     welsDecoderExt.obj
 0002:0000d990       ??_C@_0CD@DKAHALON@CWelsDecoder?3?3CWelsDecoder?$CI?$CJ?5en@ 000000018006f990     welsDecoderExt.obj
 0002:0000d9b8       ??_C@_0BO@DDEBJFLI@CWelsDecoder?3?3?$HOCWelsDecoder?$CI?$CJ@ 000000018006f9b8     welsDecoderExt.obj
 0002:0000d9d8       ??_C@_0DE@GCCLONGP@CWelsDecoder?3?3Initialize?$CI?$CJ?0?5inv@ 000000018006f9d8     welsDecoderExt.obj
 0002:0000da10       ??_C@_0BG@FGKLKPOC@openh264?5default?3?51?44@ 000000018006fa10     welsDecoderExt.obj
 0002:0000da28       ??_C@_0DM@IGGGKIFP@CWelsDecoder?3?3UninitDecoder?$CI?$CJ?0?5@ 000000018006fa28     welsDecoderExt.obj
 0002:0000da70       ??_C@_0EL@IFHILDPH@CWelsDecoder?3?3UninitDecoder?$CI?$CJ?0?5@ 000000018006fa70     welsDecoderExt.obj
 0002:0000dac0       ??_C@_0O@NCGLFBMO@m_pDecContext@ 000000018006fac0     welsDecoderExt.obj
 0002:0000dad0       ??_C@_0EK@PBJCFGGB@CWelsDecoder?3?3init_decoder?$CI?$CJ?0?5o@ 000000018006fad0     welsDecoderExt.obj
 0002:0000db20       ??_C@_0CJ@FFBLPHMN@ResetDecoder?$CI?$CJ?0?5context?5error?5c@ 000000018006fb20     welsDecoderExt.obj
 0002:0000db50       ??_C@_0CO@NGLMIKP@ResetDecoder?$CI?$CJ?5failed?5as?5decode@ 000000018006fb50     welsDecoderExt.obj
 0002:0000db80       ??_C@_0ED@DAPIEIPE@CWelsDecoder?3?3SetOption?5for?5dat@ 000000018006fb80     welsDecoderExt.obj
 0002:0000dbd0       ??_C@_0EL@MAHKGELC@CWelsDecoder?3?3SetOption?5for?5ERR@ 000000018006fbd0     welsDecoderExt.obj
 0002:0000dc20       ??_C@_0DA@MLBPADKK@CWelsDecoder?3?3SetOption?5for?5ERR@ 000000018006fc20     welsDecoderExt.obj
 0002:0000dc50       ??_C@_0DI@HHPMNDME@CWelsDecoder?3?3SetOption?$CI?$CJ?0?5open@ 000000018006fc50     welsDecoderExt.obj
 0002:0000dc90       ??_C@_0FC@NFFLDLGK@CWelsDecoder?3?3SetOption?$CI?$CJ?3DECOD@ 000000018006fc90     welsDecoderExt.obj
 0002:0000dce8       ??_C@_0CB@OBEDBINN@decode?5failed?0?5failure?5type?3?$CFd?5@ 000000018006fce8     welsDecoderExt.obj
 0002:0000dd10       ??_C@_0DA@DCPKNGFG@continuous?5error?5reached?5INT_MA@ 000000018006fd10     welsDecoderExt.obj
 0002:0000dd40       __real@3fe0000000000000    000000018006fd40     welsDecoderExt.obj
 0002:0000dd48       __real@408f400000000000    000000018006fd48     welsDecoderExt.obj
 0002:0000dd50       __real@412e848000000000    000000018006fd50     welsDecoderExt.obj
 0002:0000dd60       ??_7IWelsVP@@6B@           000000018006fd60     AdaptiveQuantization.obj
 0002:0000dda8       ??_7IStrategy@WelsVP@@6B@  000000018006fda8     AdaptiveQuantization.obj
 0002:0000ddf0       ??_7CAdaptiveQuantization@WelsVP@@6B@ 000000018006fdf0     AdaptiveQuantization.obj
 0002:0000de38       ??_7type_info@@6B@         000000018006fe38     MSVCRTD:std_type_info_static.obj
 0002:0000df00       ??_C@_0NN@JMPELKLB@The?5value?5of?5ESP?5was?5not?5proper@ 000000018006ff00     MSVCRTD:error.obj
 0002:0000dfe0       ??_C@_0BBN@ELNNILBE@A?5cast?5to?5a?5smaller?5data?5type?5h@ 000000018006ffe0     MSVCRTD:error.obj
 0002:0000e100       ??_C@_0BN@BPOGFMJL@Stack?5memory?5was?5corrupted?$AN?6@ 0000000180070100     MSVCRTD:error.obj
 0002:0000e120       ??_C@_0DG@DAJCDLPN@A?5local?5variable?5was?5used?5befor@ 0000000180070120     MSVCRTD:error.obj
 0002:0000e158       ??_C@_0CM@JMIDGKLA@Stack?5memory?5around?5_alloca?5was@ 0000000180070158     MSVCRTD:error.obj
 0002:0000e188       ??_C@_0BO@CHIONIOI@Unknown?5Runtime?5Check?5Error?$AN?6@ 0000000180070188     MSVCRTD:error.obj
 0002:0000e1b0       ??_C@_1GM@CNOOJIHC@?$AAR?$AAu?$AAn?$AAt?$AAi?$AAm?$AAe?$AA?5?$AAC?$AAh?$AAe?$AAc?$AAk?$AA?5?$AAE@ 00000001800701b0     MSVCRTD:error.obj
 0002:0000e220       ??_C@_1EA@NFKNIFJP@?$AAR?$AAu?$AAn?$AA?9?$AAT?$AAi?$AAm?$AAe?$AA?5?$AAC?$AAh?$AAe?$AAc?$AAk?$AA?5@ 0000000180070220     MSVCRTD:error.obj
 0002:0000e260       ??_C@_0BB@PFFGGCJP@Unknown?5Filename@ 0000000180070260     MSVCRTD:error.obj
 0002:0000e278       ??_C@_0BE@GNBOBNCK@Unknown?5Module?5Name@ 0000000180070278     MSVCRTD:error.obj
 0002:0000e290       ??_C@_0CA@IODNCDPG@Run?9Time?5Check?5Failure?5?$CD?$CFd?5?9?5?$CFs@ 0000000180070290     MSVCRTD:error.obj
 0002:0000e2b0       ??_C@_0CG@IAFNJNEE@Stack?5corrupted?5near?5unknown?5va@ 00000001800702b0     MSVCRTD:error.obj
 0002:0000e2d8       ??_C@_05MKKEDADM@?$CF?42X?5@ 00000001800702d8     MSVCRTD:error.obj
 0002:0000e2e0       ??_C@_0EJ@LJKNEOLN@Stack?5area?5around?5_alloca?5memor@ 00000001800702e0     MSVCRTD:error.obj
 0002:0000e32c       ??_C@_01EEMJAFIK@?6@       000000018007032c     MSVCRTD:error.obj
 0002:0000e330       ??_C@_02LLMPMKNF@?$DO?5@   0000000180070330     MSVCRTD:error.obj
 0002:0000e338       ??_C@_08OMAHNMHJ@?6Data?3?5?$DM@ 0000000180070338     MSVCRTD:error.obj
 0002:0000e348       ??_C@_0CK@DKGBICFE@?6Allocation?5number?5within?5this?5@ 0000000180070348     MSVCRTD:error.obj
 0002:0000e378       ??_C@_07DFDJCKFN@?6Size?3?5@ 0000000180070378     MSVCRTD:error.obj
 0002:0000e380       ??_C@_0N@MHFFIMFG@?6Address?3?50x@ 0000000180070380     MSVCRTD:error.obj
 0002:0000e390       ??_C@_0EI@CLEPFNGI@Stack?5area?5around?5_alloca?5memor@ 0000000180070390     MSVCRTD:error.obj
 0002:0000e3d8       ??_C@_0BK@ODNDAGKB@?$CFs?$CFs?$CFp?$CFs?$CFzd?$CFs?$CFd?$CFs?$CFs?$CFs?$CFs?$CFs@ 00000001800703d8     MSVCRTD:error.obj
 0002:0000e3f8       ??_C@_0DE@OHJBPMBP@A?5variable?5is?5being?5used?5withou@ 00000001800703f8     MSVCRTD:error.obj
 0002:0000e440       _pDefaultRawDllMain        0000000180070440     MSVCRTD:dll_dllmain.obj
 0002:0000e440       _pRawDllMain               0000000180070440     MSVCRTD:dll_dllmain.obj
 0002:0000e470       ??_C@_0BJ@HEGAHDFO@Stack?5pointer?5corruption@ 0000000180070470     MSVCRTD:userapi.obj
 0002:0000e490       ??_C@_0CK@FEGOIOPB@Cast?5to?5smaller?5type?5causing?5lo@ 0000000180070490     MSVCRTD:userapi.obj
 0002:0000e4c0       ??_C@_0BI@CIGMDCBH@Stack?5memory?5corruption@ 00000001800704c0     MSVCRTD:userapi.obj
 0002:0000e4d8       ??_C@_0CK@CNLNOEPB@Local?5variable?5used?5before?5init@ 00000001800704d8     MSVCRTD:userapi.obj
 0002:0000e508       ??_C@_0BP@OGBCLIBO@Stack?5around?5_alloca?5corrupted@ 0000000180070508     MSVCRTD:userapi.obj
 0002:0000e580       ??_C@_1EI@MLPKHBGE@?$AAa?$AAp?$AAi?$AA?9?$AAm?$AAs?$AA?9?$AAw?$AAi?$AAn?$AA?9?$AAc?$AAo?$AAr?$AAe@ 0000000180070580     MSVCRTD:pdblkup.obj
 0002:0000e5c8       ??_C@_1BK@JHLNAEJL@?$AAa?$AAd?$AAv?$AAa?$AAp?$AAi?$AA3?$AA2?$AA?4?$AAd?$AAl?$AAl@ 00000001800705c8     MSVCRTD:pdblkup.obj
 0002:0000e5e8       ??_C@_0O@COHOBMLB@RegOpenKeyExW@ 00000001800705e8     MSVCRTD:pdblkup.obj
 0002:0000e5f8       ??_C@_0BB@GLNAEDBD@RegQueryValueExW@ 00000001800705f8     MSVCRTD:pdblkup.obj
 0002:0000e610       ??_C@_0M@HLOHPNFA@RegCloseKey@ 0000000180070610     MSVCRTD:pdblkup.obj
 0002:0000e620       ??_C@_1HE@EBEAGLFB@?$AAS?$AAO?$AAF?$AAT?$AAW?$AAA?$AAR?$AAE?$AA?2?$AAW?$AAo?$AAw?$AA6?$AA4?$AA3@ 0000000180070620     MSVCRTD:pdblkup.obj
 0002:0000e698       ??_C@_1BG@EABPBLLF@?$AAP?$AAr?$AAo?$AAd?$AAu?$AAc?$AAt?$AAD?$AAi?$AAr@ 0000000180070698     MSVCRTD:pdblkup.obj
 0002:0000e6d0       ??_C@_1BC@JINFINNJ@?$AAM?$AAS?$AAP?$AAD?$AAB?$AA1?$AA4?$AA0@ 00000001800706d0     MSVCRTD:pdblkup.obj
 0002:0000e6e8       ??_C@_0BB@KCIACLNC@PDBOpenValidate5@ 00000001800706e8     MSVCRTD:pdblkup.obj
 0002:0000e6fc       ??_C@_01KDCPPGHE@r@        00000001800706fc     MSVCRTD:pdblkup.obj
 0002:0000e708       ??_7exception@std@@6B@     0000000180070708     MSVCRTD:throw_bad_alloc.obj
 0002:0000e718       ??_C@_0BC@EOODALEL@Unknown?5exception@ 0000000180070718     MSVCRTD:throw_bad_alloc.obj
 0002:0000e738       ??_7bad_alloc@std@@6B@     0000000180070738     MSVCRTD:throw_bad_alloc.obj
 0002:0000e748       ??_C@_0P@GHFPNOJB@bad?5allocation@ 0000000180070748     MSVCRTD:throw_bad_alloc.obj
 0002:0000e760       ??_7bad_array_new_length@std@@6B@ 0000000180070760     MSVCRTD:throw_bad_alloc.obj
 0002:0000e770       ??_C@_0BF@KINCDENJ@bad?5array?5new?5length@ 0000000180070770     MSVCRTD:throw_bad_alloc.obj
 0002:0000e7e0       _load_config_used          00000001800707e0     MSVCRTD:loadcfg.obj
 0002:0000e910       ??_R4CMemoryAlign@WelsCommon@@6B@ 0000000180070910     memory_align.obj
 0002:0000e938       ??_R3CMemoryAlign@WelsCommon@@8 0000000180070938     memory_align.obj
 0002:0000e950       ??_R2CMemoryAlign@WelsCommon@@8 0000000180070950     memory_align.obj
 0002:0000e960       ??_R1A@?0A@EA@CMemoryAlign@WelsCommon@@8 0000000180070960     memory_align.obj
 0002:0000e988       ??_R4ISVCDecoder@@6B@      0000000180070988     welsDecoderExt.obj
 0002:0000e9b0       ??_R3ISVCDecoder@@8        00000001800709b0     welsDecoderExt.obj
 0002:0000e9c8       ??_R2ISVCDecoder@@8        00000001800709c8     welsDecoderExt.obj
 0002:0000e9d8       ??_R1A@?0A@EA@ISVCDecoder@@8 00000001800709d8     welsDecoderExt.obj
 0002:0000ea00       ??_R4CWelsDecoder@WelsDec@@6B@ 0000000180070a00     welsDecoderExt.obj
 0002:0000ea28       ??_R3CWelsDecoder@WelsDec@@8 0000000180070a28     welsDecoderExt.obj
 0002:0000ea40       ??_R2CWelsDecoder@WelsDec@@8 0000000180070a40     welsDecoderExt.obj
 0002:0000ea58       ??_R1A@?0A@EA@CWelsDecoder@WelsDec@@8 0000000180070a58     welsDecoderExt.obj
 0002:0000ea80       ??_R4IWelsVP@@6B@          0000000180070a80     AdaptiveQuantization.obj
 0002:0000eaa8       ??_R3IWelsVP@@8            0000000180070aa8     AdaptiveQuantization.obj
 0002:0000eac0       ??_R2IWelsVP@@8            0000000180070ac0     AdaptiveQuantization.obj
 0002:0000ead0       ??_R1A@?0A@EA@IWelsVP@@8   0000000180070ad0     AdaptiveQuantization.obj
 0002:0000eaf8       ??_R4IStrategy@WelsVP@@6B@ 0000000180070af8     AdaptiveQuantization.obj
 0002:0000eb20       ??_R3IStrategy@WelsVP@@8   0000000180070b20     AdaptiveQuantization.obj
 0002:0000eb38       ??_R2IStrategy@WelsVP@@8   0000000180070b38     AdaptiveQuantization.obj
 0002:0000eb50       ??_R1A@?0A@EA@IStrategy@WelsVP@@8 0000000180070b50     AdaptiveQuantization.obj
 0002:0000eb78       ??_R4CAdaptiveQuantization@WelsVP@@6B@ 0000000180070b78     AdaptiveQuantization.obj
 0002:0000eba0       ??_R3CAdaptiveQuantization@WelsVP@@8 0000000180070ba0     AdaptiveQuantization.obj
 0002:0000ebb8       ??_R2CAdaptiveQuantization@WelsVP@@8 0000000180070bb8     AdaptiveQuantization.obj
 0002:0000ebd8       ??_R1A@?0A@EA@CAdaptiveQuantization@WelsVP@@8 0000000180070bd8     AdaptiveQuantization.obj
 0002:0000ec00       ??_R4type_info@@6B@        0000000180070c00     MSVCRTD:std_type_info_static.obj
 0002:0000ec28       ??_R3type_info@@8          0000000180070c28     MSVCRTD:std_type_info_static.obj
 0002:0000ec40       ??_R2type_info@@8          0000000180070c40     MSVCRTD:std_type_info_static.obj
 0002:0000ec50       ??_R1A@?0A@EA@type_info@@8 0000000180070c50     MSVCRTD:std_type_info_static.obj
 0002:0000ec78       ??_R4exception@std@@6B@    0000000180070c78     MSVCRTD:throw_bad_alloc.obj
 0002:0000eca0       ??_R3exception@std@@8      0000000180070ca0     MSVCRTD:throw_bad_alloc.obj
 0002:0000ecb8       ??_R2exception@std@@8      0000000180070cb8     MSVCRTD:throw_bad_alloc.obj
 0002:0000ecc8       ??_R1A@?0A@EA@exception@std@@8 0000000180070cc8     MSVCRTD:throw_bad_alloc.obj
 0002:0000ecf0       ??_R4bad_alloc@std@@6B@    0000000180070cf0     MSVCRTD:throw_bad_alloc.obj
 0002:0000ed18       ??_R3bad_alloc@std@@8      0000000180070d18     MSVCRTD:throw_bad_alloc.obj
 0002:0000ed30       ??_R2bad_alloc@std@@8      0000000180070d30     MSVCRTD:throw_bad_alloc.obj
 0002:0000ed48       ??_R1A@?0A@EA@bad_alloc@std@@8 0000000180070d48     MSVCRTD:throw_bad_alloc.obj
 0002:0000ed70       ??_R4bad_array_new_length@std@@6B@ 0000000180070d70     MSVCRTD:throw_bad_alloc.obj
 0002:0000ed98       ??_R3bad_array_new_length@std@@8 0000000180070d98     MSVCRTD:throw_bad_alloc.obj
 0002:0000edb0       ??_R2bad_array_new_length@std@@8 0000000180070db0     MSVCRTD:throw_bad_alloc.obj
 0002:0000edd0       ??_R1A@?0A@EA@bad_array_new_length@std@@8 0000000180070dd0     MSVCRTD:throw_bad_alloc.obj
 0002:0000f140       __rtc_iaa                  0000000180071140     MSVCRTD:initsect.obj
 0002:0000f248       __rtc_izz                  0000000180071248     MSVCRTD:initsect.obj
 0002:0000f250       __rtc_taa                  0000000180071250     MSVCRTD:initsect.obj
 0002:0000f358       __rtc_tzz                  0000000180071358     MSVCRTD:initsect.obj
 0002:00011dc0       _TI2?AVbad_alloc@std@@     0000000180073dc0     MSVCRTD:throw_bad_alloc.obj
 0002:00011de0       _CTA2?AVbad_alloc@std@@    0000000180073de0     MSVCRTD:throw_bad_alloc.obj
 0002:00011df8       _CT??_R0?AVbad_alloc@std@@@8??0bad_alloc@std@@QEAA@AEBV01@@Z24 0000000180073df8     MSVCRTD:throw_bad_alloc.obj
 0002:00011e20       _CT??_R0?AVexception@std@@@8??0exception@std@@QEAA@AEBV01@@Z24 0000000180073e20     MSVCRTD:throw_bad_alloc.obj
 0002:00011e48       _TI3?AVbad_array_new_length@std@@ 0000000180073e48     MSVCRTD:throw_bad_alloc.obj
 0002:00011e68       _CTA3?AVbad_array_new_length@std@@ 0000000180073e68     MSVCRTD:throw_bad_alloc.obj
 0002:00011e88       _CT??_R0?AVbad_array_new_length@std@@@8??0bad_array_new_length@std@@QEAA@AEBV01@@Z24 0000000180073e88     MSVCRTD:throw_bad_alloc.obj
 0002:00012224       __IMPORT_DESCRIPTOR_KERNEL32 0000000180074224     kernel32:KERNEL32.dll
 0002:00012238       __IMPORT_DESCRIPTOR_VCRUNTIME140D 0000000180074238     vcruntimed:VCRUNTIME140D.dll
 0002:0001224c       __IMPORT_DESCRIPTOR_VCRUNTIME140_1D 000000018007424c     vcruntimed:VCRUNTIME140_1D.dll
 0002:00012260       __IMPORT_DESCRIPTOR_ucrtbased 0000000180074260     ucrtd:ucrtbased.dll
 0002:00012274       __NULL_IMPORT_DESCRIPTOR   0000000180074274     kernel32:KERNEL32.dll
 0003:00000000       ?__LINE__Var@?0???1CMemoryAlign@WelsCommon@@UEAA@XZ@4JA 0000000180075000     memory_align.obj
 0003:00000010       __security_cookie_complement 0000000180075010     MSVCRTD:gs_cookie.obj
 0003:00000018       __security_cookie          0000000180075018     MSVCRTD:gs_cookie.obj
 0003:00000020       _fltused                   0000000180075020     MSVCRTD:fltused.obj
 0003:00000030       ?_RTC_ErrorLevels@@3PAHA   0000000180075030     MSVCRTD:error.obj
 0003:00000044       __scrt_native_dllmain_reason 0000000180075044     MSVCRTD:utility.obj
 0003:00000050       __isa_available            0000000180075050     MSVCRTD:cpu_disp.obj
 0003:00000054       __isa_enabled              0000000180075054     MSVCRTD:cpu_disp.obj
 0003:00000058       __memcpy_nt_iters          0000000180075058     MSVCRTD:cpu_disp.obj
 0003:00000060       __memset_nt_iters          0000000180075060     MSVCRTD:cpu_disp.obj
 0003:00000068       __scrt_ucrt_dll_is_in_use  0000000180075068     MSVCRTD:ucrt_stubs.obj
 0003:00000070       ??_R0?AVCMemoryAlign@WelsCommon@@@8 0000000180075070     memory_align.obj
 0003:000000a0       ??_R0?AVISVCDecoder@@@8    00000001800750a0     welsDecoderExt.obj
 0003:000000c8       ??_R0?AVCWelsDecoder@WelsDec@@@8 00000001800750c8     welsDecoderExt.obj
 0003:000000f8       ??_R0?AVIWelsVP@@@8        00000001800750f8     AdaptiveQuantization.obj
 0003:00000118       ??_R0?AVIStrategy@WelsVP@@@8 0000000180075118     AdaptiveQuantization.obj
 0003:00000140       ??_R0?AVCAdaptiveQuantization@WelsVP@@@8 0000000180075140     AdaptiveQuantization.obj
 0003:00000178       ??_R0?AVtype_info@@@8      0000000180075178     MSVCRTD:std_type_info_static.obj
 0003:00000198       ??_R0?AVbad_alloc@std@@@8  0000000180075198     MSVCRTD:throw_bad_alloc.obj
 0003:000001c0       ??_R0?AVexception@std@@@8  00000001800751c0     MSVCRTD:throw_bad_alloc.obj
 0003:000001e8       ??_R0?AVbad_array_new_length@std@@@8 00000001800751e8     MSVCRTD:throw_bad_alloc.obj
 0003:00000220       ?_OptionsStorage@?1??__local_stdio_printf_options@@9@4_KA 0000000180075220     crt_util_safe_x.obj
 0003:00000230       __@@_PchSym_@00@UtrgUrnnvihrevhwpUrnnvihrevvckvirvmxvglloprgUDiwkzigboryizirvhUlkvmsCGEUyfrowUlyqUwvyftUcGEUhgwzucOlyq@4B2008FD98C1DD4 0000000180075230     stdafx.obj
 0003:000007e0       ?__type_info_root_node@@3U__type_info_node@@A 00000001800757e0     MSVCRTD:tncleanup.obj
 0003:000007f0       ?_OptionsStorage@?1??__local_stdio_scanf_options@@9@4_KA 00000001800757f0     MSVCRTD:default_local_stdio_options.obj
 0003:000007f8       __scrt_current_native_startup_state 00000001800757f8     MSVCRTD:utility.obj
 0003:00000800       __scrt_native_startup_lock 0000000180075800     MSVCRTD:utility.obj
 0003:00000840       __scrt_debugger_hook_flag  0000000180075840     MSVCRTD:utility_desktop.obj
 0003:00000844       __favor                    0000000180075844     MSVCRTD:cpu_disp.obj
 0003:00000848       __dyn_tls_init_callback    0000000180075848     <common>
 0003:00000850       __DebuggerCurrentSteppingThreadId 0000000180075850     <common>

 entry point at        0001:0005e500

 Static symbols

 0000:fff85000       .debug$S                   0000000180000000     OpenH264.exp
 0002:fff9e000       $unwind$__local_stdio_printf_options 0000000180000000     decoder_core.obj
 0002:fff9e000       $unwind$_vfprintf_l        0000000180000000     decoder_core.obj
 0002:fff9e000       $unwind$fprintf            0000000180000000     decoder_core.obj
 0002:fff9e000       fprintf$rtcName$0          0000000180000000     decoder_core.obj
 0002:fff9e000       $unwind$__local_stdio_printf_options 0000000180000000     welsCodecTrace.obj
 0002:fff9e000       __guard_ehcont_?dllmain_dispatch@@YAHQEAUHINSTANCE__@@KQEAX@Z 0000000180000000     MSVCRTD:dll_dllmain.obj
 0002:fff9e000       __guard_fids_?dllmain_dispatch@@YAHQEAUHINSTANCE__@@KQEAX@Z 0000000180000000     MSVCRTD:dll_dllmain.obj
 0002:fff9e000       __guard_ehcont_?notify_debugger@@YAXAEBUtagEXCEPTION_VISUALCPP_DEBUG_INFO@@@Z 0000000180000000     MSVCRTD:error.obj
 0002:fff9e000       __guard_fids__             0000000180000000     MSVCRTD:guard_support.obj
 0002:fff9e000       __guard_fids__             0000000180000000     MSVCRTD:guard_support.obj
 0002:fff9e000       __guard_fids__guard_icall_checks_enforced 0000000180000000     MSVCRTD:guard_support.obj
 0002:fff9e000       __guard_fids__CRT_RTC_INIT 0000000180000000     MSVCRTD:init.obj
 0002:fff9e000       __guard_fids__CRT_RTC_INITW 0000000180000000     MSVCRTD:init.obj
 0002:fff9e000       __guard_fids__             0000000180000000     MSVCRTD:std_type_info_static.obj
 0002:fff9e000       __guard_fids__             0000000180000000     MSVCRTD:throw_bad_alloc.obj
 0002:fff9e000       __guard_fids__             0000000180000000     MSVCRTD:throw_bad_alloc.obj
 0002:fff9e000       __guard_fids__             0000000180000000     MSVCRTD:throw_bad_alloc.obj
 0002:fff9e000       __guard_ehcont___scrt_is_nonwritable_in_current_image 0000000180000000     MSVCRTD:utility.obj
 0002:fff9e000       __guard_fids___scrt_set_unhandled_exception_filter 0000000180000000     MSVCRTD:utility_desktop.obj
 0000:fff85000       .debug$S                   0000000180000000     vcruntimed:VCRUNTIME140D.dll
 0000:fff85000       .debug$S                   0000000180000000     vcruntimed:VCRUNTIME140D.dll
 0000:fff85000       .debug$S                   0000000180000000     vcruntimed:VCRUNTIME140D.dll
 0000:fff85000       .debug$S                   0000000180000000     vcruntimed:VCRUNTIME140D.dll
 0000:fff85000       .debug$S                   0000000180000000     vcruntimed:VCRUNTIME140D.dll
 0000:fff85000       .debug$S                   0000000180000000     vcruntimed:VCRUNTIME140D.dll
 0000:fff85000       .debug$S                   0000000180000000     vcruntimed:VCRUNTIME140D.dll
 0000:fff85000       .debug$S                   0000000180000000     vcruntimed:VCRUNTIME140D.dll
 0000:fff85000       .debug$S                   0000000180000000     vcruntimed:VCRUNTIME140D.dll
 0000:fff85000       .debug$S                   0000000180000000     vcruntimed:VCRUNTIME140D.dll
 0000:fff85000       .debug$S                   0000000180000000     vcruntimed:VCRUNTIME140D.dll
 0000:fff85000       .debug$S                   0000000180000000     vcruntimed:VCRUNTIME140D.dll
 0000:fff85000       .debug$S                   0000000180000000     vcruntimed:VCRUNTIME140D.dll
 0000:fff85000       .debug$S                   0000000180000000     vcruntimed:VCRUNTIME140D.dll
 0000:fff85000       .debug$S                   0000000180000000     vcruntimed:VCRUNTIME140D.dll
 0000:fff85000       .debug$S                   0000000180000000     vcruntimed:VCRUNTIME140D.dll
 0000:fff85000       .debug$S                   0000000180000000     vcruntimed:VCRUNTIME140_1D.dll
 0000:fff85000       .debug$S                   0000000180000000     ucrtd:ucrtbased.dll
 0000:fff85000       .debug$S                   0000000180000000     ucrtd:ucrtbased.dll
 0000:fff85000       .debug$S                   0000000180000000     ucrtd:ucrtbased.dll
 0000:fff85000       .debug$S                   0000000180000000     ucrtd:ucrtbased.dll
 0000:fff85000       .debug$S                   0000000180000000     ucrtd:ucrtbased.dll
 0000:fff85000       .debug$S                   0000000180000000     ucrtd:ucrtbased.dll
 0000:fff85000       .debug$S                   0000000180000000     ucrtd:ucrtbased.dll
 0000:fff85000       .debug$S                   0000000180000000     ucrtd:ucrtbased.dll
 0000:fff85000       .debug$S                   0000000180000000     ucrtd:ucrtbased.dll
 0000:fff85000       .debug$S                   0000000180000000     ucrtd:ucrtbased.dll
 0000:fff85000       .debug$S                   0000000180000000     ucrtd:ucrtbased.dll
 0000:fff85000       .debug$S                   0000000180000000     ucrtd:ucrtbased.dll
 0000:fff85000       .debug$S                   0000000180000000     ucrtd:ucrtbased.dll
 0000:fff85000       .debug$S                   0000000180000000     ucrtd:ucrtbased.dll
 0000:fff85000       .debug$S                   0000000180000000     ucrtd:ucrtbased.dll
 0000:fff85000       .debug$S                   0000000180000000     ucrtd:ucrtbased.dll
 0000:fff85000       .debug$S                   0000000180000000     ucrtd:ucrtbased.dll
 0000:fff85000       .debug$S                   0000000180000000     ucrtd:ucrtbased.dll
 0000:fff85000       .debug$S                   0000000180000000     ucrtd:ucrtbased.dll
 0000:fff85000       .debug$S                   0000000180000000     ucrtd:ucrtbased.dll
 0000:fff85000       .debug$S                   0000000180000000     ucrtd:ucrtbased.dll
 0000:fff85000       .debug$S                   0000000180000000     ucrtd:ucrtbased.dll
 0000:fff85000       .debug$S                   0000000180000000     ucrtd:ucrtbased.dll
 0000:fff85000       .debug$S                   0000000180000000     ucrtd:ucrtbased.dll
 0000:fff85000       .debug$S                   0000000180000000     ucrtd:ucrtbased.dll
 0000:fff85000       .debug$S                   0000000180000000     ucrtd:ucrtbased.dll
 0000:fff85000       .debug$S                   0000000180000000     ucrtd:ucrtbased.dll
 0000:fff85000       .debug$S                   0000000180000000     ucrtd:ucrtbased.dll
 0000:fff85000       .debug$S                   0000000180000000     ucrtd:ucrtbased.dll
 0000:fff85000       .debug$S                   0000000180000000     ucrtd:ucrtbased.dll
 0000:fff85000       .debug$S                   0000000180000000     ucrtd:ucrtbased.dll
 0000:fff85000       .debug$S                   0000000180000000     ucrtd:ucrtbased.dll
 0000:fff85000       .debug$S                   0000000180000000     ucrtd:ucrtbased.dll
 0000:fff85000       .debug$S                   0000000180000000     ucrtd:ucrtbased.dll
 0000:fff85000       .debug$S                   0000000180000000     ucrtd:ucrtbased.dll
 0000:fff85000       .debug$S                   0000000180000000     ucrtd:ucrtbased.dll
 0000:fff85000       .debug$S                   0000000180000000     ucrtd:ucrtbased.dll
 0000:fff85000       .debug$S                   0000000180000000     ucrtd:ucrtbased.dll
 0000:fff85000       .debug$S                   0000000180000000     ucrtd:ucrtbased.dll
 0000:fff85000       .debug$S                   0000000180000000     ucrtd:ucrtbased.dll
 0000:fff85000       .debug$S                   0000000180000000     kernel32:KERNEL32.dll
 0000:fff85000       .debug$S                   0000000180000000     kernel32:KERNEL32.dll
 0000:fff85000       .debug$S                   0000000180000000     kernel32:KERNEL32.dll
 0000:fff85000       .debug$S                   0000000180000000     kernel32:KERNEL32.dll
 0000:fff85000       .debug$S                   0000000180000000     kernel32:KERNEL32.dll
 0000:fff85000       .debug$S                   0000000180000000     kernel32:KERNEL32.dll
 0000:fff85000       .debug$S                   0000000180000000     kernel32:KERNEL32.dll
 0000:fff85000       .debug$S                   0000000180000000     kernel32:KERNEL32.dll
 0000:fff85000       .debug$S                   0000000180000000     kernel32:KERNEL32.dll
 0000:fff85000       .debug$S                   0000000180000000     kernel32:KERNEL32.dll
 0000:fff85000       .debug$S                   0000000180000000     kernel32:KERNEL32.dll
 0000:fff85000       .debug$S                   0000000180000000     kernel32:KERNEL32.dll
 0000:fff85000       .debug$S                   0000000180000000     kernel32:KERNEL32.dll
 0000:fff85000       .debug$S                   0000000180000000     kernel32:KERNEL32.dll
 0000:fff85000       .debug$S                   0000000180000000     kernel32:KERNEL32.dll
 0000:fff85000       .debug$S                   0000000180000000     kernel32:KERNEL32.dll
 0000:fff85000       .debug$S                   0000000180000000     kernel32:KERNEL32.dll
 0000:fff85000       .debug$S                   0000000180000000     kernel32:KERNEL32.dll
 0000:fff85000       .debug$S                   0000000180000000     kernel32:KERNEL32.dll
 0000:fff85000       .debug$S                   0000000180000000     kernel32:KERNEL32.dll
 0000:fff85000       .debug$S                   0000000180000000     kernel32:KERNEL32.dll
 0000:fff85000       .debug$S                   0000000180000000     kernel32:KERNEL32.dll
 0000:fff85000       .debug$S                   0000000180000000     kernel32:KERNEL32.dll
 0000:fff85000       .debug$S                   0000000180000000     kernel32:KERNEL32.dll
 0000:fff85000       .debug$S                   0000000180000000     kernel32:KERNEL32.dll
 0000:fff85000       .debug$S                   0000000180000000     kernel32:KERNEL32.dll
 0000:fff85000       .debug$S                   0000000180000000     kernel32:KERNEL32.dll
 0000:fff85000       .debug$S                   0000000180000000     kernel32:KERNEL32.dll
 0000:fff85000       .debug$S                   0000000180000000     kernel32:KERNEL32.dll
 0000:fff85000       .debug$S                   0000000180000000     kernel32:KERNEL32.dll
 0000:fff85000       .debug$S                   0000000180000000     kernel32:KERNEL32.dll
 0000:fff85000       .debug$S                   0000000180000000     kernel32:KERNEL32.dll
 0000:fff85000       .debug$S                   0000000180000000     kernel32:KERNEL32.dll
 0000:fff85000       .debug$S                   0000000180000000     kernel32:KERNEL32.dll
 0000:fff85000       .debug$S                   0000000180000000     kernel32:KERNEL32.dll
 0000:fff85000       .debug$S                   0000000180000000     kernel32:KERNEL32.dll
 0000:fff85000       .debug$S                   0000000180000000     kernel32:KERNEL32.dll
 0000:fff85000       .debug$S                   0000000180000000     kernel32:KERNEL32.dll
 0000:fff85000       .debug$S                   0000000180000000     kernel32:KERNEL32.dll
 0000:fff85000       .debug$S                   0000000180000000     kernel32:KERNEL32.dll
 0002:fff9e010       fprintf$rtcVarDesc         0000000180000010     decoder_core.obj
 0002:fff9e050       fprintf$rtcFrameData       0000000180000050     decoder_core.obj
 0001:00000e60       localtime_s                0000000180001e60 f   crt_util_safe_x.obj
 0001:000030c0       ?WelsClip1@@YAEH@Z         00000001800040c0 f   deblocking_common.obj
 0001:000031e0       ?ExpandPictureChroma_c@@YAXPEAEHHH@Z 00000001800041e0 f   expand_pic.obj
 0001:00003480       ?ExpandPictureLuma_c@@YAXPEAEHHH@Z 0000000180004480 f   expand_pic.obj
 0001:00003bf0       ?McCopy_c@WelsCommon@@YAXPEBEHPEAEHHH@Z 0000000180004bf0 f   mc.obj
 0001:00003d10       ?McHorVer20_c@WelsCommon@@YAXPEBEHPEAEHHH@Z 0000000180004d10 f   mc.obj
 0001:00003e10       ?McHorVer02_c@WelsCommon@@YAXPEBEHPEAEHHH@Z 0000000180004e10 f   mc.obj
 0001:00003f20       ?McHorVer22_c@WelsCommon@@YAXPEBEHPEAEHHH@Z 0000000180004f20 f   mc.obj
 0001:000040a0       ?McHorVer01_c@WelsCommon@@YAXPEBEHPEAEHHH@Z 00000001800050a0 f   mc.obj
 0001:000041a0       ?McHorVer03_c@WelsCommon@@YAXPEBEHPEAEHHH@Z 00000001800051a0 f   mc.obj
 0001:000042b0       ?McHorVer10_c@WelsCommon@@YAXPEBEHPEAEHHH@Z 00000001800052b0 f   mc.obj
 0001:000043b0       ?McHorVer11_c@WelsCommon@@YAXPEBEHPEAEHHH@Z 00000001800053b0 f   mc.obj
 0001:000044e0       ?McHorVer12_c@WelsCommon@@YAXPEBEHPEAEHHH@Z 00000001800054e0 f   mc.obj
 0001:00004610       ?McHorVer13_c@WelsCommon@@YAXPEBEHPEAEHHH@Z 0000000180005610 f   mc.obj
 0001:00004750       ?McHorVer21_c@WelsCommon@@YAXPEBEHPEAEHHH@Z 0000000180005750 f   mc.obj
 0001:00004880       ?McHorVer23_c@WelsCommon@@YAXPEBEHPEAEHHH@Z 0000000180005880 f   mc.obj
 0001:000049c0       ?McHorVer30_c@WelsCommon@@YAXPEBEHPEAEHHH@Z 00000001800059c0 f   mc.obj
 0001:00004ac0       ?McHorVer31_c@WelsCommon@@YAXPEBEHPEAEHHH@Z 0000000180005ac0 f   mc.obj
 0001:00004bf0       ?McHorVer32_c@WelsCommon@@YAXPEBEHPEAEHHH@Z 0000000180005bf0 f   mc.obj
 0001:00004d20       ?McHorVer33_c@WelsCommon@@YAXPEBEHPEAEHHH@Z 0000000180005d20 f   mc.obj
 0001:00004e60       ?FilterInput8bitWithStride_c@WelsCommon@@YAHPEBEH@Z 0000000180005e60 f   mc.obj
 0001:00004f70       ?HorFilterInput16bit_c@WelsCommon@@YAHPEBF@Z 0000000180005f70 f   mc.obj
 0001:00005100       ?McChromaWithFragMv_c@WelsCommon@@YAXPEBEHPEAEHFFHH@Z 0000000180006100 f   mc.obj
 0001:00005420       ?McCopyWidthEq16_c@WelsCommon@@YAXPEBEHPEAEHH@Z 0000000180006420 f   mc.obj
 0001:000054f0       ?McCopyWidthEq2_c@WelsCommon@@YAXPEBEHPEAEHH@Z 00000001800064f0 f   mc.obj
 0001:000055b0       ?McCopyWidthEq4_c@WelsCommon@@YAXPEBEHPEAEHH@Z 00000001800065b0 f   mc.obj
 0001:00005670       ?McCopyWidthEq8_c@WelsCommon@@YAXPEBEHPEAEHH@Z 0000000180006670 f   mc.obj
 0001:000057f0       ?PixelAvg_c@WelsCommon@@YAXPEAEHPEBEH1HHH@Z 00000001800067f0 f   mc.obj
 0001:00005910       ?WelsClip1@@YAEH@Z         0000000180006910 f   mc.obj
 0001:00007b90       ?welsStderrTrace@@YAXPEAXHPEBD@Z 0000000180008b90 f   welsCodecTrace.obj
 0001:000083a0       ?BsFlush@WelsCommon@@YAHPEAUTagBitStringAux@1@@Z 00000001800093a0 f   au_parser.obj
 0001:00008540       ?BsGetBits@WelsDec@@YAHPEAUTagBitStringAux@WelsCommon@@HPEAI@Z 0000000180009540 f   au_parser.obj
 0001:00008700       ?BsGetOneBit@WelsDec@@YAIPEAUTagBitStringAux@WelsCommon@@PEAI@Z 0000000180009700 f   au_parser.obj
 0001:00008760       ?BsGetSe@WelsDec@@YAHPEAUTagBitStringAux@WelsCommon@@PEAH@Z 0000000180009760 f   au_parser.obj
 0001:00008830       ?BsGetTrailingBits@WelsDec@@YAHPEAE@Z 0000000180009830 f   au_parser.obj
 0001:000088b0       ?BsGetUe@WelsDec@@YAIPEAUTagBitStringAux@WelsCommon@@PEAI@Z 00000001800098b0 f   au_parser.obj
 0001:00008df0       ?BsRbspTrailingBits@WelsCommon@@YAHPEAUTagBitStringAux@1@@Z 0000000180009df0 f   au_parser.obj
 0001:00008e50       ?BsWriteBits@WelsCommon@@YAHPEAUTagBitStringAux@1@HI@Z 0000000180009e50 f   au_parser.obj
 0001:00009060       ?BsWriteOneBit@WelsCommon@@YAHPEAUTagBitStringAux@1@I@Z 000000018000a060 f   au_parser.obj
 0001:000090c0       ?BsWriteSE@WelsCommon@@YAHPEAUTagBitStringAux@1@H@Z 000000018000a0c0 f   au_parser.obj
 0001:00009170       ?BsWriteUE@WelsCommon@@YAHPEAUTagBitStringAux@1@I@Z 000000018000a170 f   au_parser.obj
 0001:00009890       ?CheckMoreRBSPData@WelsDec@@YA_NPEAUTagBitStringAux@WelsCommon@@@Z 000000018000a890 f   au_parser.obj
 0001:0000a380       ?GetLeadingZeroBits@WelsDec@@YAHI@Z 000000018000b380 f   au_parser.obj
 0001:0000a6d4       $LN26                      000000018000b6d4     au_parser.obj
 0001:0000a71c       $LN25                      000000018000b71c     au_parser.obj
 0001:0000a750       ?InitBits@WelsCommon@@YAHPEAUTagBitStringAux@1@PEBEH@Z 000000018000b750 f   au_parser.obj
 0001:0000ba6c       $LN75                      000000018000ca6c     au_parser.obj
 0001:0000ba80       $LN74                      000000018000ca80     au_parser.obj
 0001:0000f6a0       ?ResetActiveSPSForEachLayer@WelsDec@@YAXPEAUTagWelsDecoderContext@1@@Z 00000001800106a0 f   au_parser.obj
 0001:00011d80       ?DeblockingBSInsideMBNormal@WelsDec@@YAXPEAUTagDqLayer@1@QEAY133EPEACH@Z 0000000180012d80 f   deblocking.obj
 0001:0001e270       ?CreatePicBuff@WelsDec@@YAHPEAUTagWelsDecoderContext@1@PEAPEAUTagPicBuff@1@HHH@Z 000000018001f270 f   decoder.obj
 0001:0001e450       ?DecreasePicBuff@WelsDec@@YAHPEAUTagWelsDecoderContext@1@PEAPEAUTagPicBuff@1@HHHH@Z 000000018001f450 f   decoder.obj
 0001:0001e870       ?GetTargetRefListSize@WelsDec@@YAHPEAUTagWelsDecoderContext@1@@Z 000000018001f870 f   decoder.obj
 0001:0001e910       ?IncreasePicBuff@WelsDec@@YAHPEAUTagWelsDecoderContext@1@PEAPEAUTagPicBuff@1@HHHH@Z 000000018001f910 f   decoder.obj
 0001:0001ec40       ?InitVlcTable@WelsDec@@YAXPEAUTagVlcTable@1@@Z 000000018001fc40 f   decoder.obj
 0001:00021860       ?BsGetBits@WelsDec@@YAHPEAUTagBitStringAux@WelsCommon@@HPEAI@Z 0000000180022860 f   decoder_core.obj
 0001:00021a20       ?BsGetOneBit@WelsDec@@YAIPEAUTagBitStringAux@WelsCommon@@PEAI@Z 0000000180022a20 f   decoder_core.obj
 0001:00021a80       ?BsGetSe@WelsDec@@YAHPEAUTagBitStringAux@WelsCommon@@PEAH@Z 0000000180022a80 f   decoder_core.obj
 0001:00021b50       ?BsGetUe@WelsDec@@YAIPEAUTagBitStringAux@WelsCommon@@PEAI@Z 0000000180022b50 f   decoder_core.obj
 0001:00022be0       ?CheckNewSeqBeginAndUpdateActiveLayerSps@WelsDec@@YA_NPEAUTagWelsDecoderContext@1@@Z 0000000180023be0 f   decoder_core.obj
 0001:000235f0       $LN16                      00000001800245f0     decoder_core.obj
 0001:00023604       $LN15                      0000000180024604     decoder_core.obj
 0001:00024b70       ?DecodeFrameConstruction@WelsDec@@YAHPEAUTagWelsDecoderContext@1@PEAPEAEPEAUTagBufferInfo@@@Z 0000000180025b70 f   decoder_core.obj
 0001:00026200       ?GetLeadingZeroBits@WelsDec@@YAHI@Z 0000000180027200 f   decoder_core.obj
 0001:00026b40       ?InitDqLayerInfo@WelsDec@@YAXPEAUTagDqLayer@1@PEAUTagLayerInfo@1@PEAUTagNalUnit@1@PEAUTagPicture@1@@Z 0000000180027b40 f   decoder_core.obj
 0001:0002abc0       ?ResetActiveSPSForEachLayer@WelsDec@@YAXPEAUTagWelsDecoderContext@1@@Z 000000018002bbc0 f   decoder_core.obj
 0001:0002bd90       ?WriteBackActiveParameters@WelsDec@@YAXPEAUTagWelsDecoderContext@1@@Z 000000018002cd90 f   decoder_core.obj
 0001:0002d0d0       ?WelsClip1@@YAEH@Z         000000018002e0d0 f   decode_mb_aux.obj
 0001:0002d150       ?BsGetBits@WelsDec@@YAHPEAUTagBitStringAux@WelsCommon@@HPEAI@Z 000000018002e150 f   decode_slice.obj
 0001:0002d310       ?BsGetOneBit@WelsDec@@YAIPEAUTagBitStringAux@WelsCommon@@PEAI@Z 000000018002e310 f   decode_slice.obj
 0001:0002d370       ?BsGetSe@WelsDec@@YAHPEAUTagBitStringAux@WelsCommon@@PEAH@Z 000000018002e370 f   decode_slice.obj
 0001:0002d440       ?BsGetUe@WelsDec@@YAIPEAUTagBitStringAux@WelsCommon@@PEAI@Z 000000018002e440 f   decode_slice.obj
 0001:0002d980       ?GetLeadingZeroBits@WelsDec@@YAHI@Z 000000018002e980 f   decode_slice.obj
 0001:0003b800       $LN35                      000000018003c800     error_concealment.obj
 0001:0003b814       $LN34                      000000018003c814     error_concealment.obj
 0001:0003bd00       ?FmoGenerateMbAllocMapType0@WelsDec@@YAHPEAUTagFmo@1@PEAUTagPps@1@@Z 000000018003cd00 f   fmo.obj
 0001:0003be70       ?FmoGenerateMbAllocMapType1@WelsDec@@YAHPEAUTagFmo@1@PEAUTagPps@1@H@Z 000000018003ce70 f   fmo.obj
 0001:0003bf90       ?FmoGenerateSliceGroup@WelsDec@@YAHPEAUTagFmo@1@QEAUTagPps@1@HHPEAVCMemoryAlign@WelsCommon@@@Z 000000018003cf90 f   fmo.obj
 0001:0003c6d0       ?WelsClip1@@YAEH@Z         000000018003d6d0 f   get_intra_predictor.obj
 0001:00043630       ?AddLongTermToList@WelsDec@@YAHPEAUTagRefPic@1@PEAUTagPicture@1@H@Z 0000000180044630 f   manage_dec_ref.obj
 0001:00043850       ?AddShortTermToList@WelsDec@@YAHPEAUTagRefPic@1@PEAUTagPicture@1@@Z 0000000180044850 f   manage_dec_ref.obj
 0001:00043b10       ?MMCO@WelsDec@@YAHPEAUTagWelsDecoderContext@1@PEAUTagRefPicMarking@1@@Z 0000000180044b10 f   manage_dec_ref.obj
 0001:00043cb0       ?MMCOProcess@WelsDec@@YAHPEAUTagWelsDecoderContext@1@IHIHH@Z 0000000180044cb0 f   manage_dec_ref.obj
 0001:00044074       $LN24                      0000000180045074     manage_dec_ref.obj
 0001:00044090       ?MarkAsLongTerm@WelsDec@@YAHPEAUTagRefPic@1@HH@Z 0000000180045090 f   manage_dec_ref.obj
 0001:00044190       ?RemainOneBufferInDpbForEC@WelsDec@@YAHPEAUTagWelsDecoderContext@1@@Z 0000000180045190 f   manage_dec_ref.obj
 0001:00044360       ?SetUnRef@WelsDec@@YAXPEAUTagPicture@1@@Z 0000000180045360 f   manage_dec_ref.obj
 0001:00044420       ?SlidingWindow@WelsDec@@YAHPEAUTagWelsDecoderContext@1@@Z 0000000180045420 f   manage_dec_ref.obj
 0001:00044580       ?WelsDelLongFromList@WelsDec@@YAPEAUTagPicture@1@PEAUTagRefPic@1@I@Z 0000000180045580 f   manage_dec_ref.obj
 0001:00044750       ?WelsDelLongFromListSetUnref@WelsDec@@YAPEAUTagPicture@1@PEAUTagRefPic@1@I@Z 0000000180045750 f   manage_dec_ref.obj
 0001:000447c0       ?WelsDelShortFromList@WelsDec@@YAPEAUTagPicture@1@PEAUTagRefPic@1@H@Z 00000001800457c0 f   manage_dec_ref.obj
 0001:000449f0       ?WelsDelShortFromListSetUnref@WelsDec@@YAPEAUTagPicture@1@PEAUTagRefPic@1@H@Z 00000001800459f0 f   manage_dec_ref.obj
 0001:00047b60       ?WelsMedian@@YAHHHH@Z      0000000180048b60 f   mv_pred.obj
 0001:00047c30       ?GetMbResProperty@WelsDec@@YAXPEAH0_N@Z 0000000180048c30 f   parse_mb_syn_cabac.obj
 0001:00047f60       $LN35                      0000000180048f60     parse_mb_syn_cabac.obj
 0001:0004e2e0       ?BsGetBits@WelsDec@@YAHPEAUTagBitStringAux@WelsCommon@@HPEAI@Z 000000018004f2e0 f   parse_mb_syn_cavlc.obj
 0001:0004e4a0       ?BsGetOneBit@WelsDec@@YAIPEAUTagBitStringAux@WelsCommon@@PEAI@Z 000000018004f4a0 f   parse_mb_syn_cavlc.obj
 0001:0004e500       ?BsGetSe@WelsDec@@YAHPEAUTagBitStringAux@WelsCommon@@PEAH@Z 000000018004f500 f   parse_mb_syn_cavlc.obj
 0001:0004e5d0       ?BsGetTe0@WelsDec@@YAHPEAUTagBitStringAux@WelsCommon@@HPEAI@Z 000000018004f5d0 f   parse_mb_syn_cavlc.obj
 0001:0004e6b0       ?BsGetUe@WelsDec@@YAIPEAUTagBitStringAux@WelsCommon@@PEAI@Z 000000018004f6b0 f   parse_mb_syn_cavlc.obj
 0001:0004ec70       ?CavlcGetLevelVal@WelsDec@@YAHQEAHPEAUTagReadBitsCache@1@EE@Z 000000018004fc70 f   parse_mb_syn_cavlc.obj
 0001:0004f1e0       ?CavlcGetRunBefore@WelsDec@@YAHQEAHPEAUTagReadBitsCache@1@EPEAUTagVlcTable@1@H@Z 00000001800501e0 f   parse_mb_syn_cavlc.obj
 0001:0004f6a0       ?CavlcGetTotalZeros@WelsDec@@YAHAEAHPEAUTagReadBitsCache@1@EPEAUTagVlcTable@1@_N@Z 00000001800506a0 f   parse_mb_syn_cavlc.obj
 0001:0004f900       ?CavlcGetTrailingOnesAndTotalCoeff@WelsDec@@YAHAEAE0PEAUTagReadBitsCache@1@PEAUTagVlcTable@1@_NC@Z 0000000180050900 f   parse_mb_syn_cavlc.obj
 0001:00050390       ?GetLeadingZeroBits@WelsDec@@YAHI@Z 0000000180051390 f   parse_mb_syn_cavlc.obj
 0001:00050470       ?GetMbResProperty@WelsDec@@YAXPEAH0_N@Z 0000000180051470 f   parse_mb_syn_cavlc.obj
 0001:000507a0       $LN35                      00000001800517a0     parse_mb_syn_cavlc.obj
 0001:00050c90       ?GetPrefixBits@WelsDec@@YAII@Z 0000000180051c90 f   parse_mb_syn_cavlc.obj
 0001:00057db8       $LN37                      0000000180058db8     rec_mb.obj
 0001:00057dcc       $LN36                      0000000180058dcc     rec_mb.obj
 0001:00057ed0       ?GetRefPic@WelsDec@@YAXPEAUTagMCRefMember@1@PEAUTagWelsDecoderContext@1@PEACH@Z 0000000180058ed0 f   rec_mb.obj
 0001:0005b7b0       WelsTime                   000000018005c7b0 f   welsDecoderExt.obj
 0001:0005d310       $$000000                   000000018005e310     MSVCRTD:amdsecgs.obj
 0001:0005d3d0       $$000000                   000000018005e3d0     MSVCRTD:chkstk.obj
 0001:0005d440       ?DebuggerProbe@@YA_NK@Z    000000018005e440 f   MSVCRTD:error.obj
 0001:0005d480       ?DebuggerRuntime@@YA_NKHPEAXPEB_W@Z 000000018005e480 f   MSVCRTD:error.obj
 0001:0005d750       ?_getMemBlockDataString@@YAXPEAD0PEBD_K@Z 000000018005e750 f   MSVCRTD:error.obj
 0001:0005d810       ?_strlen_priv@@YA_KPEBD@Z  000000018005e810 f   MSVCRTD:error.obj
 0001:0005d830       ?failwithmessage@@YAXPEAXHHPEBD@Z 000000018005e830 f   MSVCRTD:error.obj
 0001:0005da90       ?notify_debugger@@YAXAEBUtagEXCEPTION_VISUALCPP_DEBUG_INFO@@@Z 000000018005ea90 f   MSVCRTD:error.obj
 0001:0005df10       capture_current_context    000000018005ef10 f   MSVCRTD:gs_report.obj
 0001:0005dfb0       capture_previous_context   000000018005efb0 f   MSVCRTD:gs_report.obj
 0001:0005e0c0       ?dllmain_crt_dispatch@@YAHQEAUHINSTANCE__@@KQEAX@Z 000000018005f0c0 f   MSVCRTD:dll_dllmain.obj
 0001:0005e150       ?dllmain_crt_process_attach@@YAHQEAUHINSTANCE__@@QEAX@Z 000000018005f150 f   MSVCRTD:dll_dllmain.obj
 0001:0005e290       ?dllmain_crt_process_detach@@YAH_N@Z 000000018005f290 f   MSVCRTD:dll_dllmain.obj
 0001:0005e330       ?dllmain_dispatch@@YAHQEAUHINSTANCE__@@KQEAX@Z 000000018005f330 f   MSVCRTD:dll_dllmain.obj
 0001:0005e470       ?dllmain_raw@@YAHQEAUHINSTANCE__@@KQEAX@Z 000000018005f470 f   MSVCRTD:dll_dllmain.obj
 0001:0005e610       ?GetPdbDll@@YAPEAUHINSTANCE__@@XZ 000000018005f610 f   MSVCRTD:pdblkup.obj
 0001:0005e760       ?GetPdbDllFromInstallPath@@YAPEAUHINSTANCE__@@XZ 000000018005f760 f   MSVCRTD:pdblkup.obj
 0001:0005ea10       ?GetPdbDllPathFromFilePath@@YAHPEB_WPEA_W_K@Z 000000018005fa10 f   MSVCRTD:pdblkup.obj
 0001:0005f350       __get_entropy              0000000180060350 f   MSVCRTD:gs_support.obj
 0001:0005f590       ?find_pe_section@@YAPEAU_IMAGE_SECTION_HEADER@@QEAE_K@Z 0000000180060590 f   MSVCRTD:utility.obj
 0001:0005f670       ?is_potentially_valid_image_base@@YA_NQEAX@Z 0000000180060670 f   MSVCRTD:utility.obj
 0001:000606e0       $$000000                   00000001800616e0     MSVCRTD:guard_dispatch.obj
 0001:00060700       $$000000                   0000000180061700     MSVCRTD:guard_xfg_dispatch.obj
 0001:00060720       ?dtor$0@?0???0CWelsDecoder@WelsDec@@QEAA@XZ@4HA 0000000180061720 f   welsDecoderExt.obj
 0001:00060750       ?dtor$1@?0???0CWelsDecoder@WelsDec@@QEAA@XZ@4HA 0000000180061750 f   welsDecoderExt.obj
 0001:00060780       ?dtor$0@?0??InitDecoder@CWelsDecoder@WelsDec@@AEAAH_N@Z@4HA 0000000180061780 f   welsDecoderExt.obj
 0001:000607b0       ?dtor$0@?0???0CAdaptiveQuantization@WelsVP@@QEAA@H@Z@4HA 00000001800617b0 f   AdaptiveQuantization.obj
 0001:000607e0       ?filt$0@?0??notify_debugger@@YAXAEBUtagEXCEPTION_VISUALCPP_DEBUG_INFO@@@Z@4HA 00000001800617e0 f   MSVCRTD:error.obj
 0001:00060800       ?fin$0@?0??dllmain_crt_process_attach@@YAHQEAUHINSTANCE__@@QEAX@Z@4HA 0000000180061800 f   MSVCRTD:dll_dllmain.obj
 0001:00060820       ?fin$0@?0??dllmain_crt_process_detach@@YAH_N@Z@4HA 0000000180061820 f   MSVCRTD:dll_dllmain.obj
 0001:0006083a       ?fin$1@?0??dllmain_crt_process_detach@@YAH_N@Z@4HA 000000018006183a f   MSVCRTD:dll_dllmain.obj
 0001:00060850       ?filt$0@?0??dllmain_dispatch@@YAHQEAUHINSTANCE__@@KQEAX@Z@4HA 0000000180061850 f   MSVCRTD:dll_dllmain.obj
 0001:000608a0       __scrt_is_nonwritable_in_current_image$filt$0 00000001800618a0 f   MSVCRTD:utility.obj
 0002:00003ac0       WelsSnprintf$rtcName$0     0000000180065ac0     crt_util_safe_x.obj
 0002:00003ad0       WelsSnprintf$rtcVarDesc    0000000180065ad0     crt_util_safe_x.obj
 0002:00003b10       WelsSnprintf$rtcFrameData  0000000180065b10     crt_util_safe_x.obj
 0002:00003b20       WelsFopen$rtcName$0        0000000180065b20     crt_util_safe_x.obj
 0002:00003b30       WelsFopen$rtcVarDesc       0000000180065b30     crt_util_safe_x.obj
 0002:00003b70       WelsFopen$rtcFrameData     0000000180065b70     crt_util_safe_x.obj
 0002:00003b80       WelsStrftime$rtcName$0     0000000180065b80     crt_util_safe_x.obj
 0002:00003b90       WelsStrftime$rtcVarDesc    0000000180065b90     crt_util_safe_x.obj
 0002:00003bd0       WelsStrftime$rtcFrameData  0000000180065bd0     crt_util_safe_x.obj
 0002:00003be0       ?g_kuiABCD@WelsCommon@@3QAY173$$CBEA 0000000180065be0     mc.obj
 0002:00003ce0       ?pWelsMcFunc@?1??McLuma_c@WelsCommon@@YAXPEBEHPEAEHFFHH@Z@4QAY03Q6AX0H1HHH@ZA 0000000180065ce0     mc.obj
 0002:00003d60       ?McHorVer22_c@WelsCommon@@YAXPEBEHPEAEHHH@Z$rtcName$0 0000000180065d60     mc.obj
 0002:00003d70       ?McHorVer22_c@WelsCommon@@YAXPEBEHPEAEHHH@Z$rtcVarDesc 0000000180065d70     mc.obj
 0002:00003db0       ?McHorVer22_c@WelsCommon@@YAXPEBEHPEAEHHH@Z$rtcFrameData 0000000180065db0     mc.obj
 0002:00003dc0       ?McHorVer01_c@WelsCommon@@YAXPEBEHPEAEHHH@Z$rtcName$0 0000000180065dc0     mc.obj
 0002:00003dd0       ?McHorVer01_c@WelsCommon@@YAXPEBEHPEAEHHH@Z$rtcVarDesc 0000000180065dd0     mc.obj
 0002:00003e10       ?McHorVer01_c@WelsCommon@@YAXPEBEHPEAEHHH@Z$rtcFrameData 0000000180065e10     mc.obj
 0002:00003e20       ?McHorVer03_c@WelsCommon@@YAXPEBEHPEAEHHH@Z$rtcName$0 0000000180065e20     mc.obj
 0002:00003e30       ?McHorVer03_c@WelsCommon@@YAXPEBEHPEAEHHH@Z$rtcVarDesc 0000000180065e30     mc.obj
 0002:00003e70       ?McHorVer03_c@WelsCommon@@YAXPEBEHPEAEHHH@Z$rtcFrameData 0000000180065e70     mc.obj
 0002:00003e80       ?McHorVer10_c@WelsCommon@@YAXPEBEHPEAEHHH@Z$rtcName$0 0000000180065e80     mc.obj
 0002:00003e90       ?McHorVer10_c@WelsCommon@@YAXPEBEHPEAEHHH@Z$rtcVarDesc 0000000180065e90     mc.obj
 0002:00003ed0       ?McHorVer10_c@WelsCommon@@YAXPEBEHPEAEHHH@Z$rtcFrameData 0000000180065ed0     mc.obj
 0002:00003ee0       ?McHorVer11_c@WelsCommon@@YAXPEBEHPEAEHHH@Z$rtcName$0 0000000180065ee0     mc.obj
 0002:00003ef0       ?McHorVer11_c@WelsCommon@@YAXPEBEHPEAEHHH@Z$rtcName$1 0000000180065ef0     mc.obj
 0002:00003f00       ?McHorVer11_c@WelsCommon@@YAXPEBEHPEAEHHH@Z$rtcVarDesc 0000000180065f00     mc.obj
 0002:00003f80       ?McHorVer11_c@WelsCommon@@YAXPEBEHPEAEHHH@Z$rtcFrameData 0000000180065f80     mc.obj
 0002:00003f90       ?McHorVer12_c@WelsCommon@@YAXPEBEHPEAEHHH@Z$rtcName$0 0000000180065f90     mc.obj
 0002:00003fa0       ?McHorVer12_c@WelsCommon@@YAXPEBEHPEAEHHH@Z$rtcName$1 0000000180065fa0     mc.obj
 0002:00003fb0       ?McHorVer12_c@WelsCommon@@YAXPEBEHPEAEHHH@Z$rtcVarDesc 0000000180065fb0     mc.obj
 0002:00004030       ?McHorVer12_c@WelsCommon@@YAXPEBEHPEAEHHH@Z$rtcFrameData 0000000180066030     mc.obj
 0002:00004040       ?McHorVer13_c@WelsCommon@@YAXPEBEHPEAEHHH@Z$rtcName$0 0000000180066040     mc.obj
 0002:00004050       ?McHorVer13_c@WelsCommon@@YAXPEBEHPEAEHHH@Z$rtcName$1 0000000180066050     mc.obj
 0002:00004060       ?McHorVer13_c@WelsCommon@@YAXPEBEHPEAEHHH@Z$rtcVarDesc 0000000180066060     mc.obj
 0002:000040e0       ?McHorVer13_c@WelsCommon@@YAXPEBEHPEAEHHH@Z$rtcFrameData 00000001800660e0     mc.obj
 0002:000040f0       ?McHorVer21_c@WelsCommon@@YAXPEBEHPEAEHHH@Z$rtcName$0 00000001800660f0     mc.obj
 0002:00004100       ?McHorVer21_c@WelsCommon@@YAXPEBEHPEAEHHH@Z$rtcName$1 0000000180066100     mc.obj
 0002:00004110       ?McHorVer21_c@WelsCommon@@YAXPEBEHPEAEHHH@Z$rtcVarDesc 0000000180066110     mc.obj
 0002:00004190       ?McHorVer21_c@WelsCommon@@YAXPEBEHPEAEHHH@Z$rtcFrameData 0000000180066190     mc.obj
 0002:000041a0       ?McHorVer23_c@WelsCommon@@YAXPEBEHPEAEHHH@Z$rtcName$0 00000001800661a0     mc.obj
 0002:000041b0       ?McHorVer23_c@WelsCommon@@YAXPEBEHPEAEHHH@Z$rtcName$1 00000001800661b0     mc.obj
 0002:000041c0       ?McHorVer23_c@WelsCommon@@YAXPEBEHPEAEHHH@Z$rtcVarDesc 00000001800661c0     mc.obj
 0002:00004240       ?McHorVer23_c@WelsCommon@@YAXPEBEHPEAEHHH@Z$rtcFrameData 0000000180066240     mc.obj
 0002:00004250       ?McHorVer30_c@WelsCommon@@YAXPEBEHPEAEHHH@Z$rtcName$0 0000000180066250     mc.obj
 0002:00004260       ?McHorVer30_c@WelsCommon@@YAXPEBEHPEAEHHH@Z$rtcVarDesc 0000000180066260     mc.obj
 0002:000042a0       ?McHorVer30_c@WelsCommon@@YAXPEBEHPEAEHHH@Z$rtcFrameData 00000001800662a0     mc.obj
 0002:000042b0       ?McHorVer31_c@WelsCommon@@YAXPEBEHPEAEHHH@Z$rtcName$0 00000001800662b0     mc.obj
 0002:000042c0       ?McHorVer31_c@WelsCommon@@YAXPEBEHPEAEHHH@Z$rtcName$1 00000001800662c0     mc.obj
 0002:000042d0       ?McHorVer31_c@WelsCommon@@YAXPEBEHPEAEHHH@Z$rtcVarDesc 00000001800662d0     mc.obj
 0002:00004350       ?McHorVer31_c@WelsCommon@@YAXPEBEHPEAEHHH@Z$rtcFrameData 0000000180066350     mc.obj
 0002:00004360       ?McHorVer32_c@WelsCommon@@YAXPEBEHPEAEHHH@Z$rtcName$0 0000000180066360     mc.obj
 0002:00004370       ?McHorVer32_c@WelsCommon@@YAXPEBEHPEAEHHH@Z$rtcName$1 0000000180066370     mc.obj
 0002:00004380       ?McHorVer32_c@WelsCommon@@YAXPEBEHPEAEHHH@Z$rtcVarDesc 0000000180066380     mc.obj
 0002:00004400       ?McHorVer32_c@WelsCommon@@YAXPEBEHPEAEHHH@Z$rtcFrameData 0000000180066400     mc.obj
 0002:00004410       ?McHorVer33_c@WelsCommon@@YAXPEBEHPEAEHHH@Z$rtcName$0 0000000180066410     mc.obj
 0002:00004420       ?McHorVer33_c@WelsCommon@@YAXPEBEHPEAEHHH@Z$rtcName$1 0000000180066420     mc.obj
 0002:00004430       ?McHorVer33_c@WelsCommon@@YAXPEBEHPEAEHHH@Z$rtcVarDesc 0000000180066430     mc.obj
 0002:000044b0       ?McHorVer33_c@WelsCommon@@YAXPEBEHPEAEHHH@Z$rtcFrameData 00000001800664b0     mc.obj
 0002:000045e0       ?WelsLog@@YAXPEAUTagLogContext@@HPEBDZZ$rtcName$0 00000001800665e0     utils.obj
 0002:000045e8       ?WelsLog@@YAXPEAUTagLogContext@@HPEBDZZ$rtcName$1 00000001800665e8     utils.obj
 0002:00004600       ?WelsLog@@YAXPEAUTagLogContext@@HPEBDZZ$rtcVarDesc 0000000180066600     utils.obj
 0002:00004680       ?WelsLog@@YAXPEAUTagLogContext@@HPEBDZZ$rtcFrameData 0000000180066680     utils.obj
 0002:00004750       fprintf$rtcName$0          0000000180066750     welsCodecTrace.obj
 0002:00004760       fprintf$rtcVarDesc         0000000180066760     welsCodecTrace.obj
 0002:000047a0       fprintf$rtcFrameData       00000001800667a0     welsCodecTrace.obj
 0002:000047b0       ?CodecTrace@welsCodecTrace@@AEAAXHPEBDPEAD@Z$rtcName$0 00000001800667b0     welsCodecTrace.obj
 0002:000047c0       ?CodecTrace@welsCodecTrace@@AEAAXHPEBDPEAD@Z$rtcVarDesc 00000001800667c0     welsCodecTrace.obj
 0002:00004800       ?CodecTrace@welsCodecTrace@@AEAAXHPEBDPEAD@Z$rtcFrameData 0000000180066800     welsCodecTrace.obj
 0002:00004820       WelsQueryLogicalProcessInfo$rtcName$0 0000000180066820     WelsThreadLib.obj
 0002:00004830       WelsQueryLogicalProcessInfo$rtcVarDesc 0000000180066830     WelsThreadLib.obj
 0002:00004870       WelsQueryLogicalProcessInfo$rtcFrameData 0000000180066870     WelsThreadLib.obj
 0002:00004880       ?g_kuiZigzagScan@WelsDec@@3QBEB 0000000180066880     au_parser.obj
 0002:00004890       ?g_kuiZigzagScan8x8@WelsDec@@3QBEB 0000000180066890     au_parser.obj
 0002:000048d0       ?g_kuiPrefix8BitsTable@WelsDec@@3QBIB 00000001800668d0     au_parser.obj
 0002:00004910       ?BsGetSe@WelsDec@@YAHPEAUTagBitStringAux@WelsCommon@@PEAH@Z$rtcName$0 0000000180066910     au_parser.obj
 0002:00004920       ?BsGetSe@WelsDec@@YAHPEAUTagBitStringAux@WelsCommon@@PEAH@Z$rtcVarDesc 0000000180066920     au_parser.obj
 0002:00004960       ?BsGetSe@WelsDec@@YAHPEAUTagBitStringAux@WelsCommon@@PEAH@Z$rtcFrameData 0000000180066960     au_parser.obj
 0002:00004970       ?ParseNonVclNal@WelsDec@@YAHPEAUTagWelsDecoderContext@1@PEAEH1H@Z$rtcName$0 0000000180066970     au_parser.obj
 0002:00004980       ?ParseNonVclNal@WelsDec@@YAHPEAUTagWelsDecoderContext@1@PEAEH1H@Z$rtcName$1 0000000180066980     au_parser.obj
 0002:00004990       ?ParseNonVclNal@WelsDec@@YAHPEAUTagWelsDecoderContext@1@PEAEH1H@Z$rtcVarDesc 0000000180066990     au_parser.obj
 0002:00004a10       ?ParseNonVclNal@WelsDec@@YAHPEAUTagWelsDecoderContext@1@PEAEH1H@Z$rtcFrameData 0000000180066a10     au_parser.obj
 0002:00004a20       ?ParseRefBasePicMarking@WelsDec@@YAHPEAUTagBitStringAux@WelsCommon@@PEAUTagRefBasePicMarkingSyn@1@@Z$rtcName$0 0000000180066a20     au_parser.obj
 0002:00004a30       ?ParseRefBasePicMarking@WelsDec@@YAHPEAUTagBitStringAux@WelsCommon@@PEAUTagRefBasePicMarkingSyn@1@@Z$rtcVarDesc 0000000180066a30     au_parser.obj
 0002:00004a70       ?ParseRefBasePicMarking@WelsDec@@YAHPEAUTagBitStringAux@WelsCommon@@PEAUTagRefBasePicMarkingSyn@1@@Z$rtcFrameData 0000000180066a70     au_parser.obj
 0002:00004a80       ?ParsePrefixNalUnit@WelsDec@@YAHPEAUTagWelsDecoderContext@1@PEAUTagBitStringAux@WelsCommon@@@Z$rtcName$0 0000000180066a80     au_parser.obj
 0002:00004a90       ?ParsePrefixNalUnit@WelsDec@@YAHPEAUTagWelsDecoderContext@1@PEAUTagBitStringAux@WelsCommon@@@Z$rtcVarDesc 0000000180066a90     au_parser.obj
 0002:00004ad0       ?ParsePrefixNalUnit@WelsDec@@YAHPEAUTagWelsDecoderContext@1@PEAUTagBitStringAux@WelsCommon@@@Z$rtcFrameData 0000000180066ad0     au_parser.obj
 0002:00004ae0       ?ParseSps@WelsDec@@YAHPEAUTagWelsDecoderContext@1@PEAUTagBitStringAux@WelsCommon@@PEAH2PEAEH@Z$rtcName$0 0000000180066ae0     au_parser.obj
 0002:00004af0       ?ParseSps@WelsDec@@YAHPEAUTagWelsDecoderContext@1@PEAUTagBitStringAux@WelsCommon@@PEAH2PEAEH@Z$rtcName$1 0000000180066af0     au_parser.obj
 0002:00004af8       ?ParseSps@WelsDec@@YAHPEAUTagWelsDecoderContext@1@PEAUTagBitStringAux@WelsCommon@@PEAH2PEAEH@Z$rtcName$2 0000000180066af8     au_parser.obj
 0002:00004b00       ?ParseSps@WelsDec@@YAHPEAUTagWelsDecoderContext@1@PEAUTagBitStringAux@WelsCommon@@PEAH2PEAEH@Z$rtcName$3 0000000180066b00     au_parser.obj
 0002:00004b18       ?ParseSps@WelsDec@@YAHPEAUTagWelsDecoderContext@1@PEAUTagBitStringAux@WelsCommon@@PEAH2PEAEH@Z$rtcName$4 0000000180066b18     au_parser.obj
 0002:00004b28       ?ParseSps@WelsDec@@YAHPEAUTagWelsDecoderContext@1@PEAUTagBitStringAux@WelsCommon@@PEAH2PEAEH@Z$rtcFrameData 0000000180066b28     au_parser.obj
 0002:00004b40       ?ParseSps@WelsDec@@YAHPEAUTagWelsDecoderContext@1@PEAUTagBitStringAux@WelsCommon@@PEAH2PEAEH@Z$rtcVarDesc 0000000180066b40     au_parser.obj
 0002:00004c80       ?ParsePps@WelsDec@@YAHPEAUTagWelsDecoderContext@1@PEAUTagPps@1@PEAUTagBitStringAux@WelsCommon@@PEAEH@Z$rtcName$0 0000000180066c80     au_parser.obj
 0002:00004c8c       ?ParsePps@WelsDec@@YAHPEAUTagWelsDecoderContext@1@PEAUTagPps@1@PEAUTagBitStringAux@WelsCommon@@PEAEH@Z$rtcName$1 0000000180066c8c     au_parser.obj
 0002:00004c94       ?ParsePps@WelsDec@@YAHPEAUTagWelsDecoderContext@1@PEAUTagPps@1@PEAUTagBitStringAux@WelsCommon@@PEAEH@Z$rtcName$2 0000000180066c94     au_parser.obj
 0002:00004ca0       ?ParsePps@WelsDec@@YAHPEAUTagWelsDecoderContext@1@PEAUTagPps@1@PEAUTagBitStringAux@WelsCommon@@PEAEH@Z$rtcVarDesc 0000000180066ca0     au_parser.obj
 0002:00004d60       ?ParsePps@WelsDec@@YAHPEAUTagWelsDecoderContext@1@PEAUTagPps@1@PEAUTagBitStringAux@WelsCommon@@PEAEH@Z$rtcFrameData 0000000180066d60     au_parser.obj
 0002:00004d70       ?SetScalingListValue@WelsDec@@YAHPEAEHPEA_NPEAUTagBitStringAux@WelsCommon@@@Z$rtcName$0 0000000180066d70     au_parser.obj
 0002:00004d80       ?SetScalingListValue@WelsDec@@YAHPEAEHPEA_NPEAUTagBitStringAux@WelsCommon@@@Z$rtcVarDesc 0000000180066d80     au_parser.obj
 0002:00004dc0       ?SetScalingListValue@WelsDec@@YAHPEAEHPEA_NPEAUTagBitStringAux@WelsCommon@@@Z$rtcFrameData 0000000180066dc0     au_parser.obj
 0002:00004dd0       ?ParseScalingList@WelsDec@@YAHPEAUTagSps@1@PEAUTagBitStringAux@WelsCommon@@_NPEA_NPEAY0BA@EPEAY0EA@E@Z$rtcName$0 0000000180066dd0     au_parser.obj
 0002:00004dd8       ?ParseScalingList@WelsDec@@YAHPEAUTagSps@1@PEAUTagBitStringAux@WelsCommon@@_NPEA_NPEAY0BA@EPEAY0EA@E@Z$rtcName$1 0000000180066dd8     au_parser.obj
 0002:00004df8       ?ParseScalingList@WelsDec@@YAHPEAUTagSps@1@PEAUTagBitStringAux@WelsCommon@@_NPEA_NPEAY0BA@EPEAY0EA@E@Z$rtcName$2 0000000180066df8     au_parser.obj
 0002:00004e18       ?ParseScalingList@WelsDec@@YAHPEAUTagSps@1@PEAUTagBitStringAux@WelsCommon@@_NPEA_NPEAY0BA@EPEAY0EA@E@Z$rtcName$3 0000000180066e18     au_parser.obj
 0002:00004e30       ?ParseScalingList@WelsDec@@YAHPEAUTagSps@1@PEAUTagBitStringAux@WelsCommon@@_NPEA_NPEAY0BA@EPEAY0EA@E@Z$rtcVarDesc 0000000180066e30     au_parser.obj
 0002:00004f30       ?ParseScalingList@WelsDec@@YAHPEAUTagSps@1@PEAUTagBitStringAux@WelsCommon@@_NPEA_NPEAY0BA@EPEAY0EA@E@Z$rtcFrameData 0000000180066f30     au_parser.obj
 0002:00004f40       ?DecodeSpsSvcExt@WelsDec@@YAHPEAUTagWelsDecoderContext@1@PEAUTagSubsetSps@1@PEAUTagBitStringAux@WelsCommon@@@Z$rtcName$0 0000000180066f40     au_parser.obj
 0002:00004f48       ?DecodeSpsSvcExt@WelsDec@@YAHPEAUTagWelsDecoderContext@1@PEAUTagSubsetSps@1@PEAUTagBitStringAux@WelsCommon@@@Z$rtcName$1 0000000180066f48     au_parser.obj
 0002:00004f50       ?DecodeSpsSvcExt@WelsDec@@YAHPEAUTagWelsDecoderContext@1@PEAUTagSubsetSps@1@PEAUTagBitStringAux@WelsCommon@@@Z$rtcVarDesc 0000000180066f50     au_parser.obj
 0002:00004fd0       ?DecodeSpsSvcExt@WelsDec@@YAHPEAUTagWelsDecoderContext@1@PEAUTagSubsetSps@1@PEAUTagBitStringAux@WelsCommon@@@Z$rtcFrameData 0000000180066fd0     au_parser.obj
 0002:000058f0       ?g_kuiPrefix8BitsTable@WelsDec@@3QBIB 00000001800678f0     cabac_decoder.obj
 0002:00005930       ?g_kRenormTable256@WelsDec@@3QBEB 0000000180067930     cabac_decoder.obj
 0002:00005a30       ?g_kMvdBinPos2Ctx@WelsDec@@3QBFB 0000000180067a30     cabac_decoder.obj
 0002:00005a40       ?DecodeBinCabac@WelsDec@@YAHPEAUSWelsCabacDecEngine@1@PEAUSWels_Cabac_Element@1@AEAI@Z$rtcName$0 0000000180067a40     cabac_decoder.obj
 0002:00005a48       ?DecodeBinCabac@WelsDec@@YAHPEAUSWelsCabacDecEngine@1@PEAUSWels_Cabac_Element@1@AEAI@Z$rtcName$1 0000000180067a48     cabac_decoder.obj
 0002:00005a60       ?DecodeBinCabac@WelsDec@@YAHPEAUSWelsCabacDecEngine@1@PEAUSWels_Cabac_Element@1@AEAI@Z$rtcVarDesc 0000000180067a60     cabac_decoder.obj
 0002:00005ae0       ?DecodeBinCabac@WelsDec@@YAHPEAUSWelsCabacDecEngine@1@PEAUSWels_Cabac_Element@1@AEAI@Z$rtcFrameData 0000000180067ae0     cabac_decoder.obj
 0002:00005af0       ?DecodeBypassCabac@WelsDec@@YAHPEAUSWelsCabacDecEngine@1@AEAI@Z$rtcName$0 0000000180067af0     cabac_decoder.obj
 0002:00005af8       ?DecodeBypassCabac@WelsDec@@YAHPEAUSWelsCabacDecEngine@1@AEAI@Z$rtcName$1 0000000180067af8     cabac_decoder.obj
 0002:00005b10       ?DecodeBypassCabac@WelsDec@@YAHPEAUSWelsCabacDecEngine@1@AEAI@Z$rtcVarDesc 0000000180067b10     cabac_decoder.obj
 0002:00005b90       ?DecodeBypassCabac@WelsDec@@YAHPEAUSWelsCabacDecEngine@1@AEAI@Z$rtcFrameData 0000000180067b90     cabac_decoder.obj
 0002:00005ba0       ?DecodeTerminateCabac@WelsDec@@YAHPEAUSWelsCabacDecEngine@1@AEAI@Z$rtcName$0 0000000180067ba0     cabac_decoder.obj
 0002:00005ba8       ?DecodeTerminateCabac@WelsDec@@YAHPEAUSWelsCabacDecEngine@1@AEAI@Z$rtcName$1 0000000180067ba8     cabac_decoder.obj
 0002:00005bc0       ?DecodeTerminateCabac@WelsDec@@YAHPEAUSWelsCabacDecEngine@1@AEAI@Z$rtcVarDesc 0000000180067bc0     cabac_decoder.obj
 0002:00005c40       ?DecodeTerminateCabac@WelsDec@@YAHPEAUSWelsCabacDecEngine@1@AEAI@Z$rtcFrameData 0000000180067c40     cabac_decoder.obj
 0002:00005c50       ?DecodeUnaryBinCabac@WelsDec@@YAHPEAUSWelsCabacDecEngine@1@PEAUSWels_Cabac_Element@1@HAEAI@Z$rtcName$0 0000000180067c50     cabac_decoder.obj
 0002:00005c60       ?DecodeUnaryBinCabac@WelsDec@@YAHPEAUSWelsCabacDecEngine@1@PEAUSWels_Cabac_Element@1@HAEAI@Z$rtcVarDesc 0000000180067c60     cabac_decoder.obj
 0002:00005ca0       ?DecodeUnaryBinCabac@WelsDec@@YAHPEAUSWelsCabacDecEngine@1@PEAUSWels_Cabac_Element@1@HAEAI@Z$rtcFrameData 0000000180067ca0     cabac_decoder.obj
 0002:00005cb0       ?DecodeExpBypassCabac@WelsDec@@YAHPEAUSWelsCabacDecEngine@1@HAEAI@Z$rtcName$0 0000000180067cb0     cabac_decoder.obj
 0002:00005cc0       ?DecodeExpBypassCabac@WelsDec@@YAHPEAUSWelsCabacDecEngine@1@HAEAI@Z$rtcVarDesc 0000000180067cc0     cabac_decoder.obj
 0002:00005d00       ?DecodeExpBypassCabac@WelsDec@@YAHPEAUSWelsCabacDecEngine@1@HAEAI@Z$rtcFrameData 0000000180067d00     cabac_decoder.obj
 0002:00005d10       ?DecodeUEGLevelCabac@WelsDec@@YAIPEAUSWelsCabacDecEngine@1@PEAUSWels_Cabac_Element@1@AEAI@Z$rtcName$0 0000000180067d10     cabac_decoder.obj
 0002:00005d20       ?DecodeUEGLevelCabac@WelsDec@@YAIPEAUSWelsCabacDecEngine@1@PEAUSWels_Cabac_Element@1@AEAI@Z$rtcVarDesc 0000000180067d20     cabac_decoder.obj
 0002:00005d60       ?DecodeUEGLevelCabac@WelsDec@@YAIPEAUSWelsCabacDecEngine@1@PEAUSWels_Cabac_Element@1@AEAI@Z$rtcFrameData 0000000180067d60     cabac_decoder.obj
 0002:00005d70       ?DecodeUEGMvCabac@WelsDec@@YAHPEAUSWelsCabacDecEngine@1@PEAUSWels_Cabac_Element@1@IAEAI@Z$rtcName$0 0000000180067d70     cabac_decoder.obj
 0002:00005d80       ?DecodeUEGMvCabac@WelsDec@@YAHPEAUSWelsCabacDecEngine@1@PEAUSWels_Cabac_Element@1@IAEAI@Z$rtcVarDesc 0000000180067d80     cabac_decoder.obj
 0002:00005dc0       ?DecodeUEGMvCabac@WelsDec@@YAHPEAUSWelsCabacDecEngine@1@PEAUSWels_Cabac_Element@1@IAEAI@Z$rtcFrameData 0000000180067dc0     cabac_decoder.obj
 0002:00005dd0       ?g_kuiPrefix8BitsTable@WelsDec@@3QBIB 0000000180067dd0     deblocking.obj
 0002:00005e10       ?g_kuiAlphaTable@WelsDec@@3QBEB 0000000180067e10     deblocking.obj
 0002:00005e60       ?g_kiBetaTable@WelsDec@@3QBCB 0000000180067e60     deblocking.obj
 0002:00005eb0       ?g_kiTc0Table@WelsDec@@3QAY03$$CBCA 0000000180067eb0     deblocking.obj
 0002:00005fe0       ?g_kuiTableBIdx@WelsDec@@3QAY07$$CBEA 0000000180067fe0     deblocking.obj
 0002:00005ff0       ?g_kuiTableB8x8Idx@WelsDec@@3QAY0BA@$$CBEA 0000000180067ff0     deblocking.obj
 0002:00006010       ?WelsDeblockingFilterSlice@WelsDec@@YAXPEAUTagWelsDecoderContext@1@P6AXPEAUTagDqLayer@1@PEAUtagDeblockingFilter@1@H@Z@Z$rtcName$0 0000000180068010     deblocking.obj
 0002:00006020       ?WelsDeblockingFilterSlice@WelsDec@@YAXPEAUTagWelsDecoderContext@1@P6AXPEAUTagDqLayer@1@PEAUtagDeblockingFilter@1@H@Z@Z$rtcVarDesc 0000000180068020     deblocking.obj
 0002:00006060       ?WelsDeblockingFilterSlice@WelsDec@@YAXPEAUTagWelsDecoderContext@1@P6AXPEAUTagDqLayer@1@PEAUtagDeblockingFilter@1@H@Z@Z$rtcFrameData 0000000180068060     deblocking.obj
 0002:00006070       ?DeblockingBsMarginalMBAvcbase@WelsDec@@YAIPEAUTagDqLayer@1@HHH@Z$rtcName$0 0000000180068070     deblocking.obj
 0002:00006080       ?DeblockingBsMarginalMBAvcbase@WelsDec@@YAIPEAUTagDqLayer@1@HHH@Z$rtcVarDesc 0000000180068080     deblocking.obj
 0002:000060c0       ?DeblockingBsMarginalMBAvcbase@WelsDec@@YAIPEAUTagDqLayer@1@HHH@Z$rtcFrameData 00000001800680c0     deblocking.obj
 0002:000060d0       ?WelsDeblockingMb@WelsDec@@YAXPEAUTagDqLayer@1@PEAUtagDeblockingFilter@1@H@Z$rtcName$0 00000001800680d0     deblocking.obj
 0002:000060e0       ?WelsDeblockingMb@WelsDec@@YAXPEAUTagDqLayer@1@PEAUtagDeblockingFilter@1@H@Z$rtcVarDesc 00000001800680e0     deblocking.obj
 0002:00006120       ?WelsDeblockingMb@WelsDec@@YAXPEAUTagDqLayer@1@PEAUtagDeblockingFilter@1@H@Z$rtcFrameData 0000000180068120     deblocking.obj
 0002:00006130       ?DeblockingBSInsideMBAvsbase8x8@WelsDec@@YAXPEACQEAY133EH@Z$rtcName$0 0000000180068130     deblocking.obj
 0002:00006140       ?DeblockingBSInsideMBAvsbase8x8@WelsDec@@YAXPEACQEAY133EH@Z$rtcVarDesc 0000000180068140     deblocking.obj
 0002:00006180       ?DeblockingBSInsideMBAvsbase8x8@WelsDec@@YAXPEACQEAY133EH@Z$rtcFrameData 0000000180068180     deblocking.obj
 0002:00006190       ?DeblockingBSInsideMBNormal@WelsDec@@YAXPEAUTagDqLayer@1@QEAY133EPEACH@Z$rtcName$0 0000000180068190     deblocking.obj
 0002:000061a0       ?DeblockingBSInsideMBNormal@WelsDec@@YAXPEAUTagDqLayer@1@QEAY133EPEACH@Z$rtcName$1 00000001800681a0     deblocking.obj
 0002:000061b0       ?DeblockingBSInsideMBNormal@WelsDec@@YAXPEAUTagDqLayer@1@QEAY133EPEACH@Z$rtcVarDesc 00000001800681b0     deblocking.obj
 0002:00006230       ?DeblockingBSInsideMBNormal@WelsDec@@YAXPEAUTagDqLayer@1@QEAY133EPEACH@Z$rtcFrameData 0000000180068230     deblocking.obj
 0002:00006240       ?FilteringEdgeLumaH@WelsDec@@YAXPEAUtagDeblockingFilter@1@PEAEH1@Z$rtcName$0 0000000180068240     deblocking.obj
 0002:00006250       ?FilteringEdgeLumaH@WelsDec@@YAXPEAUtagDeblockingFilter@1@PEAEH1@Z$rtcVarDesc 0000000180068250     deblocking.obj
 0002:00006290       ?FilteringEdgeLumaH@WelsDec@@YAXPEAUtagDeblockingFilter@1@PEAEH1@Z$rtcFrameData 0000000180068290     deblocking.obj
 0002:000062a0       ?FilteringEdgeLumaV@WelsDec@@YAXPEAUtagDeblockingFilter@1@PEAEH1@Z$rtcName$0 00000001800682a0     deblocking.obj
 0002:000062b0       ?FilteringEdgeLumaV@WelsDec@@YAXPEAUtagDeblockingFilter@1@PEAEH1@Z$rtcVarDesc 00000001800682b0     deblocking.obj
 0002:000062f0       ?FilteringEdgeLumaV@WelsDec@@YAXPEAUtagDeblockingFilter@1@PEAEH1@Z$rtcFrameData 00000001800682f0     deblocking.obj
 0002:00006300       ?FilteringEdgeChromaH@WelsDec@@YAXPEAUtagDeblockingFilter@1@PEAE1H1@Z$rtcName$0 0000000180068300     deblocking.obj
 0002:00006310       ?FilteringEdgeChromaH@WelsDec@@YAXPEAUtagDeblockingFilter@1@PEAE1H1@Z$rtcVarDesc 0000000180068310     deblocking.obj
 0002:00006350       ?FilteringEdgeChromaH@WelsDec@@YAXPEAUtagDeblockingFilter@1@PEAE1H1@Z$rtcFrameData 0000000180068350     deblocking.obj
 0002:00006360       ?FilteringEdgeChromaV@WelsDec@@YAXPEAUtagDeblockingFilter@1@PEAE1H1@Z$rtcName$0 0000000180068360     deblocking.obj
 0002:00006370       ?FilteringEdgeChromaV@WelsDec@@YAXPEAUtagDeblockingFilter@1@PEAE1H1@Z$rtcVarDesc 0000000180068370     deblocking.obj
 0002:000063b0       ?FilteringEdgeChromaV@WelsDec@@YAXPEAUtagDeblockingFilter@1@PEAE1H1@Z$rtcFrameData 00000001800683b0     deblocking.obj
 0002:000063c0       ?FilteringEdgeLumaHV@WelsDec@@YAXPEAUTagDqLayer@1@PEAUtagDeblockingFilter@1@H@Z$rtcName$0 00000001800683c0     deblocking.obj
 0002:000063d0       ?FilteringEdgeLumaHV@WelsDec@@YAXPEAUTagDqLayer@1@PEAUtagDeblockingFilter@1@H@Z$rtcName$1 00000001800683d0     deblocking.obj
 0002:000063e0       ?FilteringEdgeLumaHV@WelsDec@@YAXPEAUTagDqLayer@1@PEAUtagDeblockingFilter@1@H@Z$rtcVarDesc 00000001800683e0     deblocking.obj
 0002:00006460       ?FilteringEdgeLumaHV@WelsDec@@YAXPEAUTagDqLayer@1@PEAUtagDeblockingFilter@1@H@Z$rtcFrameData 0000000180068460     deblocking.obj
 0002:00006470       ?FilteringEdgeChromaHV@WelsDec@@YAXPEAUTagDqLayer@1@PEAUtagDeblockingFilter@1@H@Z$rtcName$0 0000000180068470     deblocking.obj
 0002:00006480       ?FilteringEdgeChromaHV@WelsDec@@YAXPEAUTagDqLayer@1@PEAUtagDeblockingFilter@1@H@Z$rtcName$1 0000000180068480     deblocking.obj
 0002:00006490       ?FilteringEdgeChromaHV@WelsDec@@YAXPEAUTagDqLayer@1@PEAUtagDeblockingFilter@1@H@Z$rtcVarDesc 0000000180068490     deblocking.obj
 0002:00006510       ?FilteringEdgeChromaHV@WelsDec@@YAXPEAUTagDqLayer@1@PEAUtagDeblockingFilter@1@H@Z$rtcFrameData 0000000180068510     deblocking.obj
 0002:00006520       ?g_kuiPrefix8BitsTable@WelsDec@@3QBIB 0000000180068520     decoder.obj
 0002:00006560       WelsDecodeBs$rtcName$0     0000000180068560     decoder.obj
 0002:00006570       WelsDecodeBs$rtcName$1     0000000180068570     decoder.obj
 0002:00006580       WelsDecodeBs$rtcVarDesc    0000000180068580     decoder.obj
 0002:00006600       WelsDecodeBs$rtcFrameData  0000000180068600     decoder.obj
 0002:00006610       ?CreatePicBuff@WelsDec@@YAHPEAUTagWelsDecoderContext@1@PEAPEAUTagPicBuff@1@HHH@Z$rtcName$0 0000000180068610     decoder.obj
 0002:00006620       ?CreatePicBuff@WelsDec@@YAHPEAUTagWelsDecoderContext@1@PEAPEAUTagPicBuff@1@HHH@Z$rtcVarDesc 0000000180068620     decoder.obj
 0002:00006660       ?CreatePicBuff@WelsDec@@YAHPEAUTagWelsDecoderContext@1@PEAPEAUTagPicBuff@1@HHH@Z$rtcFrameData 0000000180068660     decoder.obj
 0002:00006670       ?IncreasePicBuff@WelsDec@@YAHPEAUTagWelsDecoderContext@1@PEAPEAUTagPicBuff@1@HHHH@Z$rtcName$0 0000000180068670     decoder.obj
 0002:00006680       ?IncreasePicBuff@WelsDec@@YAHPEAUTagWelsDecoderContext@1@PEAPEAUTagPicBuff@1@HHHH@Z$rtcVarDesc 0000000180068680     decoder.obj
 0002:000066c0       ?IncreasePicBuff@WelsDec@@YAHPEAUTagWelsDecoderContext@1@PEAPEAUTagPicBuff@1@HHHH@Z$rtcFrameData 00000001800686c0     decoder.obj
 0002:000066d0       ?DecreasePicBuff@WelsDec@@YAHPEAUTagWelsDecoderContext@1@PEAPEAUTagPicBuff@1@HHHH@Z$rtcName$0 00000001800686d0     decoder.obj
 0002:000066e0       ?DecreasePicBuff@WelsDec@@YAHPEAUTagWelsDecoderContext@1@PEAPEAUTagPicBuff@1@HHHH@Z$rtcVarDesc 00000001800686e0     decoder.obj
 0002:00006720       ?DecreasePicBuff@WelsDec@@YAHPEAUTagWelsDecoderContext@1@PEAPEAUTagPicBuff@1@HHHH@Z$rtcFrameData 0000000180068720     decoder.obj
 0002:00006730       ?WelsDecoderDefaults@WelsDec@@YAXPEAUTagWelsDecoderContext@1@PEAUTagLogContext@@PEAVCMemoryAlign@WelsCommon@@@Z$rtcName$0 0000000180068730     decoder.obj
 0002:00006740       ?WelsDecoderDefaults@WelsDec@@YAXPEAUTagWelsDecoderContext@1@PEAUTagLogContext@@PEAVCMemoryAlign@WelsCommon@@@Z$rtcVarDesc 0000000180068740     decoder.obj
 0002:00006780       ?WelsDecoderDefaults@WelsDec@@YAXPEAUTagWelsDecoderContext@1@PEAUTagLogContext@@PEAVCMemoryAlign@WelsCommon@@@Z$rtcFrameData 0000000180068780     decoder.obj
 0002:00006a90       ?g_kuiPrefix8BitsTable@WelsDec@@3QBIB 0000000180068a90     decoder_core.obj
 0002:00006ad0       ?BsGetSe@WelsDec@@YAHPEAUTagBitStringAux@WelsCommon@@PEAH@Z$rtcName$0 0000000180068ad0     decoder_core.obj
 0002:00006ae0       ?BsGetSe@WelsDec@@YAHPEAUTagBitStringAux@WelsCommon@@PEAH@Z$rtcVarDesc 0000000180068ae0     decoder_core.obj
 0002:00006b20       ?BsGetSe@WelsDec@@YAHPEAUTagBitStringAux@WelsCommon@@PEAH@Z$rtcFrameData 0000000180068b20     decoder_core.obj
 0002:00006b30       ?ParseSliceHeaderSyntaxs@WelsDec@@YAHPEAUTagWelsDecoderContext@1@PEAUTagBitStringAux@WelsCommon@@_N@Z$rtcName$0 0000000180068b30     decoder_core.obj
 0002:00006b38       ?ParseSliceHeaderSyntaxs@WelsDec@@YAHPEAUTagWelsDecoderContext@1@PEAUTagBitStringAux@WelsCommon@@_N@Z$rtcName$1 0000000180068b38     decoder_core.obj
 0002:00006b40       ?ParseSliceHeaderSyntaxs@WelsDec@@YAHPEAUTagWelsDecoderContext@1@PEAUTagBitStringAux@WelsCommon@@_N@Z$rtcName$2 0000000180068b40     decoder_core.obj
 0002:00006b50       ?ParseSliceHeaderSyntaxs@WelsDec@@YAHPEAUTagWelsDecoderContext@1@PEAUTagBitStringAux@WelsCommon@@_N@Z$rtcName$3 0000000180068b50     decoder_core.obj
 0002:00006b60       ?ParseSliceHeaderSyntaxs@WelsDec@@YAHPEAUTagWelsDecoderContext@1@PEAUTagBitStringAux@WelsCommon@@_N@Z$rtcVarDesc 0000000180068b60     decoder_core.obj
 0002:00006c60       ?ParseSliceHeaderSyntaxs@WelsDec@@YAHPEAUTagWelsDecoderContext@1@PEAUTagBitStringAux@WelsCommon@@_N@Z$rtcFrameData 0000000180068c60     decoder_core.obj
 0002:00006c70       ?DecodeCurrentAccessUnit@WelsDec@@YAHPEAUTagWelsDecoderContext@1@PEAPEAEPEAUTagBufferInfo@@@Z$rtcName$0 0000000180068c70     decoder_core.obj
 0002:00006c80       ?DecodeCurrentAccessUnit@WelsDec@@YAHPEAUTagWelsDecoderContext@1@PEAPEAEPEAUTagBufferInfo@@@Z$rtcName$1 0000000180068c80     decoder_core.obj
 0002:00006c90       ?DecodeCurrentAccessUnit@WelsDec@@YAHPEAUTagWelsDecoderContext@1@PEAPEAEPEAUTagBufferInfo@@@Z$rtcVarDesc 0000000180068c90     decoder_core.obj
 0002:00006d10       ?DecodeCurrentAccessUnit@WelsDec@@YAHPEAUTagWelsDecoderContext@1@PEAPEAEPEAUTagBufferInfo@@@Z$rtcFrameData 0000000180068d10     decoder_core.obj
 0002:00006d20       ?ParsePredWeightedTable@WelsDec@@YAHPEAUTagBitStringAux@WelsCommon@@PEAUTagSliceHeaders@1@@Z$rtcName$0 0000000180068d20     decoder_core.obj
 0002:00006d28       ?ParsePredWeightedTable@WelsDec@@YAHPEAUTagBitStringAux@WelsCommon@@PEAUTagSliceHeaders@1@@Z$rtcName$1 0000000180068d28     decoder_core.obj
 0002:00006d30       ?ParsePredWeightedTable@WelsDec@@YAHPEAUTagBitStringAux@WelsCommon@@PEAUTagSliceHeaders@1@@Z$rtcVarDesc 0000000180068d30     decoder_core.obj
 0002:00006db0       ?ParsePredWeightedTable@WelsDec@@YAHPEAUTagBitStringAux@WelsCommon@@PEAUTagSliceHeaders@1@@Z$rtcFrameData 0000000180068db0     decoder_core.obj
 0002:00006dc0       ?ParseRefPicListReordering@WelsDec@@YAHPEAUTagBitStringAux@WelsCommon@@PEAUTagSliceHeaders@1@@Z$rtcName$0 0000000180068dc0     decoder_core.obj
 0002:00006dd0       ?ParseRefPicListReordering@WelsDec@@YAHPEAUTagBitStringAux@WelsCommon@@PEAUTagSliceHeaders@1@@Z$rtcVarDesc 0000000180068dd0     decoder_core.obj
 0002:00006e10       ?ParseRefPicListReordering@WelsDec@@YAHPEAUTagBitStringAux@WelsCommon@@PEAUTagSliceHeaders@1@@Z$rtcFrameData 0000000180068e10     decoder_core.obj
 0002:00006e20       ?ParseDecRefPicMarking@WelsDec@@YAHPEAUTagWelsDecoderContext@1@PEAUTagBitStringAux@WelsCommon@@PEAUTagSliceHeaders@1@PEAUTagSps@1@_N@Z$rtcName$0 0000000180068e20     decoder_core.obj
 0002:00006e30       ?ParseDecRefPicMarking@WelsDec@@YAHPEAUTagWelsDecoderContext@1@PEAUTagBitStringAux@WelsCommon@@PEAUTagSliceHeaders@1@PEAUTagSps@1@_N@Z$rtcVarDesc 0000000180068e30     decoder_core.obj
 0002:00006e70       ?ParseDecRefPicMarking@WelsDec@@YAHPEAUTagWelsDecoderContext@1@PEAUTagBitStringAux@WelsCommon@@PEAUTagSliceHeaders@1@PEAUTagSps@1@_N@Z$rtcFrameData 0000000180068e70     decoder_core.obj
 0002:00006e80       ?CheckIntegrityNalUnitsList@WelsDec@@YA_NPEAUTagWelsDecoderContext@1@@Z$rtcName$0 0000000180068e80     decoder_core.obj
 0002:00006ea0       ?CheckIntegrityNalUnitsList@WelsDec@@YA_NPEAUTagWelsDecoderContext@1@@Z$rtcVarDesc 0000000180068ea0     decoder_core.obj
 0002:00006ee0       ?CheckIntegrityNalUnitsList@WelsDec@@YA_NPEAUTagWelsDecoderContext@1@@Z$rtcFrameData 0000000180068ee0     decoder_core.obj
 0002:00006ef0       ?CheckNewSeqBeginAndUpdateActiveLayerSps@WelsDec@@YA_NPEAUTagWelsDecoderContext@1@@Z$rtcName$0 0000000180068ef0     decoder_core.obj
 0002:00006f00       ?CheckNewSeqBeginAndUpdateActiveLayerSps@WelsDec@@YA_NPEAUTagWelsDecoderContext@1@@Z$rtcVarDesc 0000000180068f00     decoder_core.obj
 0002:00006f40       ?CheckNewSeqBeginAndUpdateActiveLayerSps@WelsDec@@YA_NPEAUTagWelsDecoderContext@1@@Z$rtcFrameData 0000000180068f40     decoder_core.obj
 0002:00007fe0       ?g_kuiPrefix8BitsTable@WelsDec@@3QBIB 0000000180069fe0     decoder_data_tables.obj
 0002:000094e0       ?IdctResAddPred_c@WelsDec@@YAXPEAEHPEAF@Z$rtcName$0 000000018006b4e0     decode_mb_aux.obj
 0002:000094f0       ?IdctResAddPred_c@WelsDec@@YAXPEAEHPEAF@Z$rtcVarDesc 000000018006b4f0     decode_mb_aux.obj
 0002:00009530       ?IdctResAddPred_c@WelsDec@@YAXPEAEHPEAF@Z$rtcFrameData 000000018006b530     decode_mb_aux.obj
 0002:00009540       ?IdctResAddPred8x8_c@WelsDec@@YAXPEAEHPEAF@Z$rtcName$0 000000018006b540     decode_mb_aux.obj
 0002:00009544       ?IdctResAddPred8x8_c@WelsDec@@YAXPEAEHPEAF@Z$rtcName$1 000000018006b544     decode_mb_aux.obj
 0002:00009548       ?IdctResAddPred8x8_c@WelsDec@@YAXPEAEHPEAF@Z$rtcName$2 000000018006b548     decode_mb_aux.obj
 0002:0000954c       ?IdctResAddPred8x8_c@WelsDec@@YAXPEAEHPEAF@Z$rtcName$3 000000018006b54c     decode_mb_aux.obj
 0002:00009554       ?IdctResAddPred8x8_c@WelsDec@@YAXPEAEHPEAF@Z$rtcName$4 000000018006b554     decode_mb_aux.obj
 0002:00009560       ?IdctResAddPred8x8_c@WelsDec@@YAXPEAEHPEAF@Z$rtcVarDesc 000000018006b560     decode_mb_aux.obj
 0002:000096a0       ?IdctResAddPred8x8_c@WelsDec@@YAXPEAEHPEAF@Z$rtcFrameData 000000018006b6a0     decode_mb_aux.obj
 0002:000096b0       ?g_kuiZigzagScan@WelsDec@@3QBEB 000000018006b6b0     decode_slice.obj
 0002:000096c0       ?g_kuiZigzagScan8x8@WelsDec@@3QBEB 000000018006b6c0     decode_slice.obj
 0002:00009700       ?g_kuiI16CbpTable@WelsDec@@3QBEB 000000018006b700     decode_slice.obj
 0002:00009708       ?g_ksInterMbTypeInfo@WelsDec@@3QBUTagPartMbInfo@1@B 000000018006b708     decode_slice.obj
 0002:00009730       ?g_kuiPrefix8BitsTable@WelsDec@@3QBIB 000000018006b730     decode_slice.obj
 0002:00009770       ?kiXOffset@?1??WelsLumaDcDequantIdct@WelsDec@@YAXPEAFHPEAUTagWelsDecoderContext@2@@Z@4QBHB 000000018006b770     decode_slice.obj
 0002:00009780       ?kiYOffset@?1??WelsLumaDcDequantIdct@WelsDec@@YAXPEAFHPEAUTagWelsDecoderContext@2@@Z@4QBHB 000000018006b780     decode_slice.obj
 0002:00009790       ?BsGetSe@WelsDec@@YAHPEAUTagBitStringAux@WelsCommon@@PEAH@Z$rtcName$0 000000018006b790     decode_slice.obj
 0002:000097a0       ?BsGetSe@WelsDec@@YAHPEAUTagBitStringAux@WelsCommon@@PEAH@Z$rtcVarDesc 000000018006b7a0     decode_slice.obj
 0002:000097e0       ?BsGetSe@WelsDec@@YAHPEAUTagBitStringAux@WelsCommon@@PEAH@Z$rtcFrameData 000000018006b7e0     decode_slice.obj
 0002:000097f0       ?WelsActualDecodeMbCavlcISlice@WelsDec@@YAHPEAUTagWelsDecoderContext@1@@Z$rtcName$0 000000018006b7f0     decode_slice.obj
 0002:000097fc       ?WelsActualDecodeMbCavlcISlice@WelsDec@@YAHPEAUTagWelsDecoderContext@1@@Z$rtcName$1 000000018006b7fc     decode_slice.obj
 0002:00009804       ?WelsActualDecodeMbCavlcISlice@WelsDec@@YAHPEAUTagWelsDecoderContext@1@@Z$rtcName$2 000000018006b804     decode_slice.obj
 0002:00009810       ?WelsActualDecodeMbCavlcISlice@WelsDec@@YAHPEAUTagWelsDecoderContext@1@@Z$rtcName$3 000000018006b810     decode_slice.obj
 0002:00009828       ?WelsActualDecodeMbCavlcISlice@WelsDec@@YAHPEAUTagWelsDecoderContext@1@@Z$rtcName$4 000000018006b828     decode_slice.obj
 0002:00009840       ?WelsActualDecodeMbCavlcISlice@WelsDec@@YAHPEAUTagWelsDecoderContext@1@@Z$rtcVarDesc 000000018006b840     decode_slice.obj
 0002:00009980       ?WelsActualDecodeMbCavlcISlice@WelsDec@@YAHPEAUTagWelsDecoderContext@1@@Z$rtcFrameData 000000018006b980     decode_slice.obj
 0002:00009990       ?WelsDecodeMbCavlcISlice@WelsDec@@YAHPEAUTagWelsDecoderContext@1@PEAUTagNalUnit@1@AEAI@Z$rtcName$0 000000018006b990     decode_slice.obj
 0002:000099a0       ?WelsDecodeMbCavlcISlice@WelsDec@@YAHPEAUTagWelsDecoderContext@1@PEAUTagNalUnit@1@AEAI@Z$rtcVarDesc 000000018006b9a0     decode_slice.obj
 0002:000099e0       ?WelsDecodeMbCavlcISlice@WelsDec@@YAHPEAUTagWelsDecoderContext@1@PEAUTagNalUnit@1@AEAI@Z$rtcFrameData 000000018006b9e0     decode_slice.obj
 0002:000099f0       ?WelsActualDecodeMbCavlcPSlice@WelsDec@@YAHPEAUTagWelsDecoderContext@1@@Z$rtcName$0 000000018006b9f0     decode_slice.obj
 0002:000099fc       ?WelsActualDecodeMbCavlcPSlice@WelsDec@@YAHPEAUTagWelsDecoderContext@1@@Z$rtcName$1 000000018006b9fc     decode_slice.obj
 0002:00009a04       ?WelsActualDecodeMbCavlcPSlice@WelsDec@@YAHPEAUTagWelsDecoderContext@1@@Z$rtcName$2 000000018006ba04     decode_slice.obj
 0002:00009a10       ?WelsActualDecodeMbCavlcPSlice@WelsDec@@YAHPEAUTagWelsDecoderContext@1@@Z$rtcName$3 000000018006ba10     decode_slice.obj
 0002:00009a28       ?WelsActualDecodeMbCavlcPSlice@WelsDec@@YAHPEAUTagWelsDecoderContext@1@@Z$rtcName$4 000000018006ba28     decode_slice.obj
 0002:00009a38       ?WelsActualDecodeMbCavlcPSlice@WelsDec@@YAHPEAUTagWelsDecoderContext@1@@Z$rtcName$5 000000018006ba38     decode_slice.obj
 0002:00009a48       ?WelsActualDecodeMbCavlcPSlice@WelsDec@@YAHPEAUTagWelsDecoderContext@1@@Z$rtcName$6 000000018006ba48     decode_slice.obj
 0002:00009a60       ?WelsActualDecodeMbCavlcPSlice@WelsDec@@YAHPEAUTagWelsDecoderContext@1@@Z$rtcVarDesc 000000018006ba60     decode_slice.obj
 0002:00009c20       ?WelsActualDecodeMbCavlcPSlice@WelsDec@@YAHPEAUTagWelsDecoderContext@1@@Z$rtcFrameData 000000018006bc20     decode_slice.obj
 0002:00009c30       ?WelsDecodeMbCavlcPSlice@WelsDec@@YAHPEAUTagWelsDecoderContext@1@PEAUTagNalUnit@1@AEAI@Z$rtcName$0 000000018006bc30     decode_slice.obj
 0002:00009c38       ?WelsDecodeMbCavlcPSlice@WelsDec@@YAHPEAUTagWelsDecoderContext@1@PEAUTagNalUnit@1@AEAI@Z$rtcName$1 000000018006bc38     decode_slice.obj
 0002:00009c40       ?WelsDecodeMbCavlcPSlice@WelsDec@@YAHPEAUTagWelsDecoderContext@1@PEAUTagNalUnit@1@AEAI@Z$rtcVarDesc 000000018006bc40     decode_slice.obj
 0002:00009cc0       ?WelsDecodeMbCavlcPSlice@WelsDec@@YAHPEAUTagWelsDecoderContext@1@PEAUTagNalUnit@1@AEAI@Z$rtcFrameData 000000018006bcc0     decode_slice.obj
 0002:00009cd0       ?WelsDecodeMbCabacPSlice@WelsDec@@YAHPEAUTagWelsDecoderContext@1@PEAUTagNalUnit@1@AEAI@Z$rtcName$0 000000018006bcd0     decode_slice.obj
 0002:00009cd8       ?WelsDecodeMbCabacPSlice@WelsDec@@YAHPEAUTagWelsDecoderContext@1@PEAUTagNalUnit@1@AEAI@Z$rtcName$1 000000018006bcd8     decode_slice.obj
 0002:00009ce8       ?WelsDecodeMbCabacPSlice@WelsDec@@YAHPEAUTagWelsDecoderContext@1@PEAUTagNalUnit@1@AEAI@Z$rtcName$2 000000018006bce8     decode_slice.obj
 0002:00009cf0       ?WelsDecodeMbCabacPSlice@WelsDec@@YAHPEAUTagWelsDecoderContext@1@PEAUTagNalUnit@1@AEAI@Z$rtcVarDesc 000000018006bcf0     decode_slice.obj
 0002:00009db0       ?WelsDecodeMbCabacPSlice@WelsDec@@YAHPEAUTagWelsDecoderContext@1@PEAUTagNalUnit@1@AEAI@Z$rtcFrameData 000000018006bdb0     decode_slice.obj
 0002:00009dc0       ?WelsDecodeMbCabacISliceBaseMode0@WelsDec@@YAHPEAUTagWelsDecoderContext@1@AEAI@Z$rtcName$0 000000018006bdc0     decode_slice.obj
 0002:00009dd0       ?WelsDecodeMbCabacISliceBaseMode0@WelsDec@@YAHPEAUTagWelsDecoderContext@1@AEAI@Z$rtcName$1 000000018006bdd0     decode_slice.obj
 0002:00009ddc       ?WelsDecodeMbCabacISliceBaseMode0@WelsDec@@YAHPEAUTagWelsDecoderContext@1@AEAI@Z$rtcName$2 000000018006bddc     decode_slice.obj
 0002:00009de8       ?WelsDecodeMbCabacISliceBaseMode0@WelsDec@@YAHPEAUTagWelsDecoderContext@1@AEAI@Z$rtcName$3 000000018006bde8     decode_slice.obj
 0002:00009e00       ?WelsDecodeMbCabacISliceBaseMode0@WelsDec@@YAHPEAUTagWelsDecoderContext@1@AEAI@Z$rtcName$4 000000018006be00     decode_slice.obj
 0002:00009e18       ?WelsDecodeMbCabacISliceBaseMode0@WelsDec@@YAHPEAUTagWelsDecoderContext@1@AEAI@Z$rtcName$5 000000018006be18     decode_slice.obj
 0002:00009e28       ?WelsDecodeMbCabacISliceBaseMode0@WelsDec@@YAHPEAUTagWelsDecoderContext@1@AEAI@Z$rtcFrameData 000000018006be28     decode_slice.obj
 0002:00009e40       ?WelsDecodeMbCabacISliceBaseMode0@WelsDec@@YAHPEAUTagWelsDecoderContext@1@AEAI@Z$rtcVarDesc 000000018006be40     decode_slice.obj
 0002:00009fc0       ?WelsDecodeMbCabacPSliceBaseMode0@WelsDec@@YAHPEAUTagWelsDecoderContext@1@PEAUTagNeighborAvail@1@AEAI@Z$rtcName$0 000000018006bfc0     decode_slice.obj
 0002:00009fcc       ?WelsDecodeMbCabacPSliceBaseMode0@WelsDec@@YAHPEAUTagWelsDecoderContext@1@PEAUTagNeighborAvail@1@AEAI@Z$rtcName$1 000000018006bfcc     decode_slice.obj
 0002:00009fd8       ?WelsDecodeMbCabacPSliceBaseMode0@WelsDec@@YAHPEAUTagWelsDecoderContext@1@PEAUTagNeighborAvail@1@AEAI@Z$rtcName$2 000000018006bfd8     decode_slice.obj
 0002:00009ff0       ?WelsDecodeMbCabacPSliceBaseMode0@WelsDec@@YAHPEAUTagWelsDecoderContext@1@PEAUTagNeighborAvail@1@AEAI@Z$rtcName$3 000000018006bff0     decode_slice.obj
 0002:0000a000       ?WelsDecodeMbCabacPSliceBaseMode0@WelsDec@@YAHPEAUTagWelsDecoderContext@1@PEAUTagNeighborAvail@1@AEAI@Z$rtcName$4 000000018006c000     decode_slice.obj
 0002:0000a010       ?WelsDecodeMbCabacPSliceBaseMode0@WelsDec@@YAHPEAUTagWelsDecoderContext@1@PEAUTagNeighborAvail@1@AEAI@Z$rtcName$5 000000018006c010     decode_slice.obj
 0002:0000a020       ?WelsDecodeMbCabacPSliceBaseMode0@WelsDec@@YAHPEAUTagWelsDecoderContext@1@PEAUTagNeighborAvail@1@AEAI@Z$rtcName$6 000000018006c020     decode_slice.obj
 0002:0000a038       ?WelsDecodeMbCabacPSliceBaseMode0@WelsDec@@YAHPEAUTagWelsDecoderContext@1@PEAUTagNeighborAvail@1@AEAI@Z$rtcName$7 000000018006c038     decode_slice.obj
 0002:0000a050       ?WelsDecodeMbCabacPSliceBaseMode0@WelsDec@@YAHPEAUTagWelsDecoderContext@1@PEAUTagNeighborAvail@1@AEAI@Z$rtcVarDesc 000000018006c050     decode_slice.obj
 0002:0000a250       ?WelsDecodeMbCabacPSliceBaseMode0@WelsDec@@YAHPEAUTagWelsDecoderContext@1@PEAUTagNeighborAvail@1@AEAI@Z$rtcFrameData 000000018006c250     decode_slice.obj
 0002:0000a260       ?WelsDecodeSlice@WelsDec@@YAHPEAUTagWelsDecoderContext@1@_NPEAUTagNalUnit@1@@Z$rtcName$0 000000018006c260     decode_slice.obj
 0002:0000a270       ?WelsDecodeSlice@WelsDec@@YAHPEAUTagWelsDecoderContext@1@_NPEAUTagNalUnit@1@@Z$rtcVarDesc 000000018006c270     decode_slice.obj
 0002:0000a2b0       ?WelsDecodeSlice@WelsDec@@YAHPEAUTagWelsDecoderContext@1@_NPEAUTagNalUnit@1@@Z$rtcFrameData 000000018006c2b0     decode_slice.obj
 0002:0000a2c0       ?WelsLumaDcDequantIdct@WelsDec@@YAXPEAFHPEAUTagWelsDecoderContext@1@@Z$rtcName$0 000000018006c2c0     decode_slice.obj
 0002:0000a2d0       ?WelsLumaDcDequantIdct@WelsDec@@YAXPEAFHPEAUTagWelsDecoderContext@1@@Z$rtcVarDesc 000000018006c2d0     decode_slice.obj
 0002:0000a310       ?WelsLumaDcDequantIdct@WelsDec@@YAXPEAFHPEAUTagWelsDecoderContext@1@@Z$rtcFrameData 000000018006c310     decode_slice.obj
 0002:0000a320       ?ParseIntra4x4Mode@WelsDec@@YAHPEAUTagWelsDecoderContext@1@PEAUTagNeighborAvail@1@PEACPEAUTagBitStringAux@WelsCommon@@PEAUTagDqLayer@1@@Z$rtcName$0 000000018006c320     decode_slice.obj
 0002:0000a330       ?ParseIntra4x4Mode@WelsDec@@YAHPEAUTagWelsDecoderContext@1@PEAUTagNeighborAvail@1@PEACPEAUTagBitStringAux@WelsCommon@@PEAUTagDqLayer@1@@Z$rtcName$1 000000018006c330     decode_slice.obj
 0002:0000a338       ?ParseIntra4x4Mode@WelsDec@@YAHPEAUTagWelsDecoderContext@1@PEAUTagNeighborAvail@1@PEACPEAUTagBitStringAux@WelsCommon@@PEAUTagDqLayer@1@@Z$rtcName$2 000000018006c338     decode_slice.obj
 0002:0000a340       ?ParseIntra4x4Mode@WelsDec@@YAHPEAUTagWelsDecoderContext@1@PEAUTagNeighborAvail@1@PEACPEAUTagBitStringAux@WelsCommon@@PEAUTagDqLayer@1@@Z$rtcName$3 000000018006c340     decode_slice.obj
 0002:0000a350       ?ParseIntra4x4Mode@WelsDec@@YAHPEAUTagWelsDecoderContext@1@PEAUTagNeighborAvail@1@PEACPEAUTagBitStringAux@WelsCommon@@PEAUTagDqLayer@1@@Z$rtcVarDesc 000000018006c350     decode_slice.obj
 0002:0000a450       ?ParseIntra4x4Mode@WelsDec@@YAHPEAUTagWelsDecoderContext@1@PEAUTagNeighborAvail@1@PEACPEAUTagBitStringAux@WelsCommon@@PEAUTagDqLayer@1@@Z$rtcFrameData 000000018006c450     decode_slice.obj
 0002:0000a460       ?ParseIntra8x8Mode@WelsDec@@YAHPEAUTagWelsDecoderContext@1@PEAUTagNeighborAvail@1@PEACPEAUTagBitStringAux@WelsCommon@@PEAUTagDqLayer@1@@Z$rtcName$0 000000018006c460     decode_slice.obj
 0002:0000a470       ?ParseIntra8x8Mode@WelsDec@@YAHPEAUTagWelsDecoderContext@1@PEAUTagNeighborAvail@1@PEACPEAUTagBitStringAux@WelsCommon@@PEAUTagDqLayer@1@@Z$rtcName$1 000000018006c470     decode_slice.obj
 0002:0000a478       ?ParseIntra8x8Mode@WelsDec@@YAHPEAUTagWelsDecoderContext@1@PEAUTagNeighborAvail@1@PEACPEAUTagBitStringAux@WelsCommon@@PEAUTagDqLayer@1@@Z$rtcName$2 000000018006c478     decode_slice.obj
 0002:0000a480       ?ParseIntra8x8Mode@WelsDec@@YAHPEAUTagWelsDecoderContext@1@PEAUTagNeighborAvail@1@PEACPEAUTagBitStringAux@WelsCommon@@PEAUTagDqLayer@1@@Z$rtcName$3 000000018006c480     decode_slice.obj
 0002:0000a490       ?ParseIntra8x8Mode@WelsDec@@YAHPEAUTagWelsDecoderContext@1@PEAUTagNeighborAvail@1@PEACPEAUTagBitStringAux@WelsCommon@@PEAUTagDqLayer@1@@Z$rtcVarDesc 000000018006c490     decode_slice.obj
 0002:0000a590       ?ParseIntra8x8Mode@WelsDec@@YAHPEAUTagWelsDecoderContext@1@PEAUTagNeighborAvail@1@PEACPEAUTagBitStringAux@WelsCommon@@PEAUTagDqLayer@1@@Z$rtcFrameData 000000018006c590     decode_slice.obj
 0002:0000a5a0       ?ParseIntra16x16Mode@WelsDec@@YAHPEAUTagWelsDecoderContext@1@PEAUTagNeighborAvail@1@PEAUTagBitStringAux@WelsCommon@@PEAUTagDqLayer@1@@Z$rtcName$0 000000018006c5a0     decode_slice.obj
 0002:0000a5b0       ?ParseIntra16x16Mode@WelsDec@@YAHPEAUTagWelsDecoderContext@1@PEAUTagNeighborAvail@1@PEAUTagBitStringAux@WelsCommon@@PEAUTagDqLayer@1@@Z$rtcName$1 000000018006c5b0     decode_slice.obj
 0002:0000a5b8       ?ParseIntra16x16Mode@WelsDec@@YAHPEAUTagWelsDecoderContext@1@PEAUTagNeighborAvail@1@PEAUTagBitStringAux@WelsCommon@@PEAUTagDqLayer@1@@Z$rtcName$2 000000018006c5b8     decode_slice.obj
 0002:0000a5c0       ?ParseIntra16x16Mode@WelsDec@@YAHPEAUTagWelsDecoderContext@1@PEAUTagNeighborAvail@1@PEAUTagBitStringAux@WelsCommon@@PEAUTagDqLayer@1@@Z$rtcVarDesc 000000018006c5c0     decode_slice.obj
 0002:0000a680       ?ParseIntra16x16Mode@WelsDec@@YAHPEAUTagWelsDecoderContext@1@PEAUTagNeighborAvail@1@PEAUTagBitStringAux@WelsCommon@@PEAUTagDqLayer@1@@Z$rtcFrameData 000000018006c680     decode_slice.obj
 0002:0000a8a0       ?g_kuiPrefix8BitsTable@WelsDec@@3QBIB 000000018006c8a0     error_concealment.obj
 0002:0000a8e0       ?GetAvilInfoFromCorrectMb@WelsDec@@YAXPEAUTagWelsDecoderContext@1@@Z$rtcName$0 000000018006c8e0     error_concealment.obj
 0002:0000a900       ?GetAvilInfoFromCorrectMb@WelsDec@@YAXPEAUTagWelsDecoderContext@1@@Z$rtcVarDesc 000000018006c900     error_concealment.obj
 0002:0000a940       ?GetAvilInfoFromCorrectMb@WelsDec@@YAXPEAUTagWelsDecoderContext@1@@Z$rtcFrameData 000000018006c940     error_concealment.obj
 0002:0000a950       ?DoErrorConSliceMVCopy@WelsDec@@YAXPEAUTagWelsDecoderContext@1@@Z$rtcName$0 000000018006c950     error_concealment.obj
 0002:0000a960       ?DoErrorConSliceMVCopy@WelsDec@@YAXPEAUTagWelsDecoderContext@1@@Z$rtcVarDesc 000000018006c960     error_concealment.obj
 0002:0000a9a0       ?DoErrorConSliceMVCopy@WelsDec@@YAXPEAUTagWelsDecoderContext@1@@Z$rtcFrameData 000000018006c9a0     error_concealment.obj
 0002:0000a9b0       ?DoMbECMvCopy@WelsDec@@YAXPEAUTagWelsDecoderContext@1@PEAUTagPicture@1@1HHHPEAUTagMCRefMember@1@@Z$rtcName$0 000000018006c9b0     error_concealment.obj
 0002:0000a9b8       ?DoMbECMvCopy@WelsDec@@YAXPEAUTagWelsDecoderContext@1@PEAUTagPicture@1@1HHHPEAUTagMCRefMember@1@@Z$rtcName$1 000000018006c9b8     error_concealment.obj
 0002:0000a9c0       ?DoMbECMvCopy@WelsDec@@YAXPEAUTagWelsDecoderContext@1@PEAUTagPicture@1@1HHHPEAUTagMCRefMember@1@@Z$rtcVarDesc 000000018006c9c0     error_concealment.obj
 0002:0000aa40       ?DoMbECMvCopy@WelsDec@@YAXPEAUTagWelsDecoderContext@1@PEAUTagPicture@1@1HHHPEAUTagMCRefMember@1@@Z$rtcFrameData 000000018006ca40     error_concealment.obj
 0002:0000ab10       ?WelsI4x4LumaPredDDL_c@WelsDec@@YAXPEAEH@Z$rtcName$0 000000018006cb10     get_intra_predictor.obj
 0002:0000ab20       ?WelsI4x4LumaPredDDL_c@WelsDec@@YAXPEAEH@Z$rtcVarDesc 000000018006cb20     get_intra_predictor.obj
 0002:0000ab60       ?WelsI4x4LumaPredDDL_c@WelsDec@@YAXPEAEH@Z$rtcFrameData 000000018006cb60     get_intra_predictor.obj
 0002:0000ab70       ?WelsI4x4LumaPredDDLTop_c@WelsDec@@YAXPEAEH@Z$rtcName$0 000000018006cb70     get_intra_predictor.obj
 0002:0000ab80       ?WelsI4x4LumaPredDDLTop_c@WelsDec@@YAXPEAEH@Z$rtcVarDesc 000000018006cb80     get_intra_predictor.obj
 0002:0000abc0       ?WelsI4x4LumaPredDDLTop_c@WelsDec@@YAXPEAEH@Z$rtcFrameData 000000018006cbc0     get_intra_predictor.obj
 0002:0000abd0       ?WelsI4x4LumaPredDDR_c@WelsDec@@YAXPEAEH@Z$rtcName$0 000000018006cbd0     get_intra_predictor.obj
 0002:0000abe0       ?WelsI4x4LumaPredDDR_c@WelsDec@@YAXPEAEH@Z$rtcVarDesc 000000018006cbe0     get_intra_predictor.obj
 0002:0000ac20       ?WelsI4x4LumaPredDDR_c@WelsDec@@YAXPEAEH@Z$rtcFrameData 000000018006cc20     get_intra_predictor.obj
 0002:0000ac30       ?WelsI4x4LumaPredVL_c@WelsDec@@YAXPEAEH@Z$rtcName$0 000000018006cc30     get_intra_predictor.obj
 0002:0000ac40       ?WelsI4x4LumaPredVL_c@WelsDec@@YAXPEAEH@Z$rtcVarDesc 000000018006cc40     get_intra_predictor.obj
 0002:0000ac80       ?WelsI4x4LumaPredVL_c@WelsDec@@YAXPEAEH@Z$rtcFrameData 000000018006cc80     get_intra_predictor.obj
 0002:0000ac90       ?WelsI4x4LumaPredVLTop_c@WelsDec@@YAXPEAEH@Z$rtcName$0 000000018006cc90     get_intra_predictor.obj
 0002:0000aca0       ?WelsI4x4LumaPredVLTop_c@WelsDec@@YAXPEAEH@Z$rtcVarDesc 000000018006cca0     get_intra_predictor.obj
 0002:0000ace0       ?WelsI4x4LumaPredVLTop_c@WelsDec@@YAXPEAEH@Z$rtcFrameData 000000018006cce0     get_intra_predictor.obj
 0002:0000acf0       ?WelsI4x4LumaPredVR_c@WelsDec@@YAXPEAEH@Z$rtcName$0 000000018006ccf0     get_intra_predictor.obj
 0002:0000ad00       ?WelsI4x4LumaPredVR_c@WelsDec@@YAXPEAEH@Z$rtcVarDesc 000000018006cd00     get_intra_predictor.obj
 0002:0000ad40       ?WelsI4x4LumaPredVR_c@WelsDec@@YAXPEAEH@Z$rtcFrameData 000000018006cd40     get_intra_predictor.obj
 0002:0000ad50       ?WelsI4x4LumaPredHU_c@WelsDec@@YAXPEAEH@Z$rtcName$0 000000018006cd50     get_intra_predictor.obj
 0002:0000ad60       ?WelsI4x4LumaPredHU_c@WelsDec@@YAXPEAEH@Z$rtcVarDesc 000000018006cd60     get_intra_predictor.obj
 0002:0000ada0       ?WelsI4x4LumaPredHU_c@WelsDec@@YAXPEAEH@Z$rtcFrameData 000000018006cda0     get_intra_predictor.obj
 0002:0000adb0       ?WelsI4x4LumaPredHD_c@WelsDec@@YAXPEAEH@Z$rtcName$0 000000018006cdb0     get_intra_predictor.obj
 0002:0000adc0       ?WelsI4x4LumaPredHD_c@WelsDec@@YAXPEAEH@Z$rtcVarDesc 000000018006cdc0     get_intra_predictor.obj
 0002:0000ae00       ?WelsI4x4LumaPredHD_c@WelsDec@@YAXPEAEH@Z$rtcFrameData 000000018006ce00     get_intra_predictor.obj
 0002:0000ae10       ?WelsI8x8LumaPredV_c@WelsDec@@YAXPEAEH_N1@Z$rtcName$0 000000018006ce10     get_intra_predictor.obj
 0002:0000ae18       ?WelsI8x8LumaPredV_c@WelsDec@@YAXPEAEH_N1@Z$rtcName$1 000000018006ce18     get_intra_predictor.obj
 0002:0000ae30       ?WelsI8x8LumaPredV_c@WelsDec@@YAXPEAEH_N1@Z$rtcVarDesc 000000018006ce30     get_intra_predictor.obj
 0002:0000aeb0       ?WelsI8x8LumaPredV_c@WelsDec@@YAXPEAEH_N1@Z$rtcFrameData 000000018006ceb0     get_intra_predictor.obj
 0002:0000aec0       ?WelsI8x8LumaPredH_c@WelsDec@@YAXPEAEH_N1@Z$rtcName$0 000000018006cec0     get_intra_predictor.obj
 0002:0000aec8       ?WelsI8x8LumaPredH_c@WelsDec@@YAXPEAEH_N1@Z$rtcName$1 000000018006cec8     get_intra_predictor.obj
 0002:0000aee0       ?WelsI8x8LumaPredH_c@WelsDec@@YAXPEAEH_N1@Z$rtcVarDesc 000000018006cee0     get_intra_predictor.obj
 0002:0000af60       ?WelsI8x8LumaPredH_c@WelsDec@@YAXPEAEH_N1@Z$rtcFrameData 000000018006cf60     get_intra_predictor.obj
 0002:0000af70       ?WelsI8x8LumaPredDc_c@WelsDec@@YAXPEAEH_N1@Z$rtcName$0 000000018006cf70     get_intra_predictor.obj
 0002:0000af78       ?WelsI8x8LumaPredDc_c@WelsDec@@YAXPEAEH_N1@Z$rtcName$1 000000018006cf78     get_intra_predictor.obj
 0002:0000af88       ?WelsI8x8LumaPredDc_c@WelsDec@@YAXPEAEH_N1@Z$rtcName$2 000000018006cf88     get_intra_predictor.obj
 0002:0000afa0       ?WelsI8x8LumaPredDc_c@WelsDec@@YAXPEAEH_N1@Z$rtcVarDesc 000000018006cfa0     get_intra_predictor.obj
 0002:0000b060       ?WelsI8x8LumaPredDc_c@WelsDec@@YAXPEAEH_N1@Z$rtcFrameData 000000018006d060     get_intra_predictor.obj
 0002:0000b070       ?WelsI8x8LumaPredDcLeft_c@WelsDec@@YAXPEAEH_N1@Z$rtcName$0 000000018006d070     get_intra_predictor.obj
 0002:0000b078       ?WelsI8x8LumaPredDcLeft_c@WelsDec@@YAXPEAEH_N1@Z$rtcName$1 000000018006d078     get_intra_predictor.obj
 0002:0000b090       ?WelsI8x8LumaPredDcLeft_c@WelsDec@@YAXPEAEH_N1@Z$rtcVarDesc 000000018006d090     get_intra_predictor.obj
 0002:0000b110       ?WelsI8x8LumaPredDcLeft_c@WelsDec@@YAXPEAEH_N1@Z$rtcFrameData 000000018006d110     get_intra_predictor.obj
 0002:0000b120       ?WelsI8x8LumaPredDcTop_c@WelsDec@@YAXPEAEH_N1@Z$rtcName$0 000000018006d120     get_intra_predictor.obj
 0002:0000b128       ?WelsI8x8LumaPredDcTop_c@WelsDec@@YAXPEAEH_N1@Z$rtcName$1 000000018006d128     get_intra_predictor.obj
 0002:0000b140       ?WelsI8x8LumaPredDcTop_c@WelsDec@@YAXPEAEH_N1@Z$rtcVarDesc 000000018006d140     get_intra_predictor.obj
 0002:0000b1c0       ?WelsI8x8LumaPredDcTop_c@WelsDec@@YAXPEAEH_N1@Z$rtcFrameData 000000018006d1c0     get_intra_predictor.obj
 0002:0000b1d0       ?WelsI8x8LumaPredDcNA_c@WelsDec@@YAXPEAEH_N1@Z$rtcName$0 000000018006d1d0     get_intra_predictor.obj
 0002:0000b1e0       ?WelsI8x8LumaPredDcNA_c@WelsDec@@YAXPEAEH_N1@Z$rtcVarDesc 000000018006d1e0     get_intra_predictor.obj
 0002:0000b220       ?WelsI8x8LumaPredDcNA_c@WelsDec@@YAXPEAEH_N1@Z$rtcFrameData 000000018006d220     get_intra_predictor.obj
 0002:0000b230       ?WelsI8x8LumaPredDDL_c@WelsDec@@YAXPEAEH_N1@Z$rtcName$0 000000018006d230     get_intra_predictor.obj
 0002:0000b238       ?WelsI8x8LumaPredDDL_c@WelsDec@@YAXPEAEH_N1@Z$rtcName$1 000000018006d238     get_intra_predictor.obj
 0002:0000b250       ?WelsI8x8LumaPredDDL_c@WelsDec@@YAXPEAEH_N1@Z$rtcVarDesc 000000018006d250     get_intra_predictor.obj
 0002:0000b2d0       ?WelsI8x8LumaPredDDL_c@WelsDec@@YAXPEAEH_N1@Z$rtcFrameData 000000018006d2d0     get_intra_predictor.obj
 0002:0000b2e0       ?WelsI8x8LumaPredDDLTop_c@WelsDec@@YAXPEAEH_N1@Z$rtcName$0 000000018006d2e0     get_intra_predictor.obj
 0002:0000b2e8       ?WelsI8x8LumaPredDDLTop_c@WelsDec@@YAXPEAEH_N1@Z$rtcName$1 000000018006d2e8     get_intra_predictor.obj
 0002:0000b300       ?WelsI8x8LumaPredDDLTop_c@WelsDec@@YAXPEAEH_N1@Z$rtcVarDesc 000000018006d300     get_intra_predictor.obj
 0002:0000b380       ?WelsI8x8LumaPredDDLTop_c@WelsDec@@YAXPEAEH_N1@Z$rtcFrameData 000000018006d380     get_intra_predictor.obj
 0002:0000b390       ?WelsI8x8LumaPredDDR_c@WelsDec@@YAXPEAEH_N1@Z$rtcName$0 000000018006d390     get_intra_predictor.obj
 0002:0000b398       ?WelsI8x8LumaPredDDR_c@WelsDec@@YAXPEAEH_N1@Z$rtcName$1 000000018006d398     get_intra_predictor.obj
 0002:0000b3a8       ?WelsI8x8LumaPredDDR_c@WelsDec@@YAXPEAEH_N1@Z$rtcName$2 000000018006d3a8     get_intra_predictor.obj
 0002:0000b3c0       ?WelsI8x8LumaPredDDR_c@WelsDec@@YAXPEAEH_N1@Z$rtcVarDesc 000000018006d3c0     get_intra_predictor.obj
 0002:0000b480       ?WelsI8x8LumaPredDDR_c@WelsDec@@YAXPEAEH_N1@Z$rtcFrameData 000000018006d480     get_intra_predictor.obj
 0002:0000b490       ?WelsI8x8LumaPredVL_c@WelsDec@@YAXPEAEH_N1@Z$rtcName$0 000000018006d490     get_intra_predictor.obj
 0002:0000b498       ?WelsI8x8LumaPredVL_c@WelsDec@@YAXPEAEH_N1@Z$rtcName$1 000000018006d498     get_intra_predictor.obj
 0002:0000b4b0       ?WelsI8x8LumaPredVL_c@WelsDec@@YAXPEAEH_N1@Z$rtcVarDesc 000000018006d4b0     get_intra_predictor.obj
 0002:0000b530       ?WelsI8x8LumaPredVL_c@WelsDec@@YAXPEAEH_N1@Z$rtcFrameData 000000018006d530     get_intra_predictor.obj
 0002:0000b540       ?WelsI8x8LumaPredVLTop_c@WelsDec@@YAXPEAEH_N1@Z$rtcName$0 000000018006d540     get_intra_predictor.obj
 0002:0000b548       ?WelsI8x8LumaPredVLTop_c@WelsDec@@YAXPEAEH_N1@Z$rtcName$1 000000018006d548     get_intra_predictor.obj
 0002:0000b560       ?WelsI8x8LumaPredVLTop_c@WelsDec@@YAXPEAEH_N1@Z$rtcVarDesc 000000018006d560     get_intra_predictor.obj
 0002:0000b5e0       ?WelsI8x8LumaPredVLTop_c@WelsDec@@YAXPEAEH_N1@Z$rtcFrameData 000000018006d5e0     get_intra_predictor.obj
 0002:0000b5f0       ?WelsI8x8LumaPredVR_c@WelsDec@@YAXPEAEH_N1@Z$rtcName$0 000000018006d5f0     get_intra_predictor.obj
 0002:0000b5f8       ?WelsI8x8LumaPredVR_c@WelsDec@@YAXPEAEH_N1@Z$rtcName$1 000000018006d5f8     get_intra_predictor.obj
 0002:0000b608       ?WelsI8x8LumaPredVR_c@WelsDec@@YAXPEAEH_N1@Z$rtcName$2 000000018006d608     get_intra_predictor.obj
 0002:0000b620       ?WelsI8x8LumaPredVR_c@WelsDec@@YAXPEAEH_N1@Z$rtcVarDesc 000000018006d620     get_intra_predictor.obj
 0002:0000b6e0       ?WelsI8x8LumaPredVR_c@WelsDec@@YAXPEAEH_N1@Z$rtcFrameData 000000018006d6e0     get_intra_predictor.obj
 0002:0000b6f0       ?WelsI8x8LumaPredHU_c@WelsDec@@YAXPEAEH_N1@Z$rtcName$0 000000018006d6f0     get_intra_predictor.obj
 0002:0000b6f8       ?WelsI8x8LumaPredHU_c@WelsDec@@YAXPEAEH_N1@Z$rtcName$1 000000018006d6f8     get_intra_predictor.obj
 0002:0000b710       ?WelsI8x8LumaPredHU_c@WelsDec@@YAXPEAEH_N1@Z$rtcVarDesc 000000018006d710     get_intra_predictor.obj
 0002:0000b790       ?WelsI8x8LumaPredHU_c@WelsDec@@YAXPEAEH_N1@Z$rtcFrameData 000000018006d790     get_intra_predictor.obj
 0002:0000b7a0       ?WelsI8x8LumaPredHD_c@WelsDec@@YAXPEAEH_N1@Z$rtcName$0 000000018006d7a0     get_intra_predictor.obj
 0002:0000b7a8       ?WelsI8x8LumaPredHD_c@WelsDec@@YAXPEAEH_N1@Z$rtcName$1 000000018006d7a8     get_intra_predictor.obj
 0002:0000b7b8       ?WelsI8x8LumaPredHD_c@WelsDec@@YAXPEAEH_N1@Z$rtcName$2 000000018006d7b8     get_intra_predictor.obj
 0002:0000b7d0       ?WelsI8x8LumaPredHD_c@WelsDec@@YAXPEAEH_N1@Z$rtcVarDesc 000000018006d7d0     get_intra_predictor.obj
 0002:0000b890       ?WelsI8x8LumaPredHD_c@WelsDec@@YAXPEAEH_N1@Z$rtcFrameData 000000018006d890     get_intra_predictor.obj
 0002:0000b8a0       ?WelsIChromaPredDc_c@WelsDec@@YAXPEAEH@Z$rtcName$0 000000018006d8a0     get_intra_predictor.obj
 0002:0000b8a8       ?WelsIChromaPredDc_c@WelsDec@@YAXPEAEH@Z$rtcName$1 000000018006d8a8     get_intra_predictor.obj
 0002:0000b8c0       ?WelsIChromaPredDc_c@WelsDec@@YAXPEAEH@Z$rtcVarDesc 000000018006d8c0     get_intra_predictor.obj
 0002:0000b940       ?WelsIChromaPredDc_c@WelsDec@@YAXPEAEH@Z$rtcFrameData 000000018006d940     get_intra_predictor.obj
 0002:0000b950       ?WelsIChromaPredDcTop_c@WelsDec@@YAXPEAEH@Z$rtcName$0 000000018006d950     get_intra_predictor.obj
 0002:0000b960       ?WelsIChromaPredDcTop_c@WelsDec@@YAXPEAEH@Z$rtcVarDesc 000000018006d960     get_intra_predictor.obj
 0002:0000b9a0       ?WelsIChromaPredDcTop_c@WelsDec@@YAXPEAEH@Z$rtcFrameData 000000018006d9a0     get_intra_predictor.obj
 0002:0000b9b0       ?g_kuiPrefix8BitsTable@WelsDec@@3QBIB 000000018006d9b0     manage_dec_ref.obj
 0002:0000bc50       ?ExpandNalUnitList@WelsDec@@YAHPEAPEAUTagAccessUnits@1@HHPEAVCMemoryAlign@WelsCommon@@@Z$rtcName$0 000000018006dc50     memmgr_nal_unit.obj
 0002:0000bc60       ?ExpandNalUnitList@WelsDec@@YAHPEAPEAUTagAccessUnits@1@HHPEAVCMemoryAlign@WelsCommon@@@Z$rtcVarDesc 000000018006dc60     memmgr_nal_unit.obj
 0002:0000bca0       ?ExpandNalUnitList@WelsDec@@YAHPEAPEAUTagAccessUnits@1@HHPEAVCMemoryAlign@WelsCommon@@@Z$rtcFrameData 000000018006dca0     memmgr_nal_unit.obj
 0002:0000bcc0       ?PredPSkipMvFromNeighbor@WelsDec@@YAXPEAUTagDqLayer@1@QEAF@Z$rtcName$0 000000018006dcc0     mv_pred.obj
 0002:0000bcc8       ?PredPSkipMvFromNeighbor@WelsDec@@YAXPEAUTagDqLayer@1@QEAF@Z$rtcName$1 000000018006dcc8     mv_pred.obj
 0002:0000bcd0       ?PredPSkipMvFromNeighbor@WelsDec@@YAXPEAUTagDqLayer@1@QEAF@Z$rtcName$2 000000018006dcd0     mv_pred.obj
 0002:0000bcdc       ?PredPSkipMvFromNeighbor@WelsDec@@YAXPEAUTagDqLayer@1@QEAF@Z$rtcName$3 000000018006dcdc     mv_pred.obj
 0002:0000bce4       ?PredPSkipMvFromNeighbor@WelsDec@@YAXPEAUTagDqLayer@1@QEAF@Z$rtcName$4 000000018006dce4     mv_pred.obj
 0002:0000bcec       ?PredPSkipMvFromNeighbor@WelsDec@@YAXPEAUTagDqLayer@1@QEAF@Z$rtcName$5 000000018006dcec     mv_pred.obj
 0002:0000bcf4       ?PredPSkipMvFromNeighbor@WelsDec@@YAXPEAUTagDqLayer@1@QEAF@Z$rtcName$6 000000018006dcf4     mv_pred.obj
 0002:0000bd00       ?PredPSkipMvFromNeighbor@WelsDec@@YAXPEAUTagDqLayer@1@QEAF@Z$rtcVarDesc 000000018006dd00     mv_pred.obj
 0002:0000be00       ?PredPSkipMvFromNeighbor@WelsDec@@YAXPEAUTagDqLayer@1@QEAF@Z$rtcFrameData 000000018006de00     mv_pred.obj
 0002:0000be10       ?PredMv@WelsDec@@YAXQEAY1BO@1FQEAY0BO@CHHCQEAF@Z$rtcName$0 000000018006de10     mv_pred.obj
 0002:0000be18       ?PredMv@WelsDec@@YAXQEAY1BO@1FQEAY0BO@CHHCQEAF@Z$rtcName$1 000000018006de18     mv_pred.obj
 0002:0000be20       ?PredMv@WelsDec@@YAXQEAY1BO@1FQEAY0BO@CHHCQEAF@Z$rtcName$2 000000018006de20     mv_pred.obj
 0002:0000be28       ?PredMv@WelsDec@@YAXQEAY1BO@1FQEAY0BO@CHHCQEAF@Z$rtcFrameData 000000018006de28     mv_pred.obj
 0002:0000be40       ?PredMv@WelsDec@@YAXQEAY1BO@1FQEAY0BO@CHHCQEAF@Z$rtcVarDesc 000000018006de40     mv_pred.obj
 0002:0000bf00       ?g_kuiIdx2CtxSignificantCoeffFlag8x8@WelsDec@@3QBEB 000000018006df00     parse_mb_syn_cabac.obj
 0002:0000bf40       ?g_kuiIdx2CtxLastSignificantCoeffFlag8x8@WelsDec@@3QBEB 000000018006df40     parse_mb_syn_cabac.obj
 0002:0000bf80       ?g_ksInterSubMbTypeInfo@WelsDec@@3QBUTagPartMbInfo@1@B 000000018006df80     parse_mb_syn_cabac.obj
 0002:0000bfa0       ?g_kuiPrefix8BitsTable@WelsDec@@3QBIB 000000018006dfa0     parse_mb_syn_cabac.obj
 0002:0000bfe0       ?g_kMaxPos@WelsDec@@3QBFB  000000018006dfe0     parse_mb_syn_cabac.obj
 0002:0000bff8       ?g_kMaxC2@WelsDec@@3QBFB   000000018006dff8     parse_mb_syn_cabac.obj
 0002:0000c010       ?g_kBlockCat2CtxOffsetCBF@WelsDec@@3QBFB 000000018006e010     parse_mb_syn_cabac.obj
 0002:0000c028       ?g_kBlockCat2CtxOffsetMap@WelsDec@@3QBFB 000000018006e028     parse_mb_syn_cabac.obj
 0002:0000c040       ?g_kBlockCat2CtxOffsetLast@WelsDec@@3QBFB 000000018006e040     parse_mb_syn_cabac.obj
 0002:0000c058       ?g_kBlockCat2CtxOffsetOne@WelsDec@@3QBFB 000000018006e058     parse_mb_syn_cabac.obj
 0002:0000c070       ?g_kBlockCat2CtxOffsetAbs@WelsDec@@3QBFB 000000018006e070     parse_mb_syn_cabac.obj
 0002:0000c088       ?g_kTopBlkInsideMb@WelsDec@@3QBEB 000000018006e088     parse_mb_syn_cabac.obj
 0002:0000c0a0       ?g_kLeftBlkInsideMb@WelsDec@@3QBEB 000000018006e0a0     parse_mb_syn_cabac.obj
 0002:0000c0c0       ?ParseMBTypeISliceCabac@WelsDec@@YAHPEAUTagWelsDecoderContext@1@PEAUTagNeighborAvail@1@AEAI@Z$rtcName$0 000000018006e0c0     parse_mb_syn_cabac.obj
 0002:0000c0d0       ?ParseMBTypeISliceCabac@WelsDec@@YAHPEAUTagWelsDecoderContext@1@PEAUTagNeighborAvail@1@AEAI@Z$rtcVarDesc 000000018006e0d0     parse_mb_syn_cabac.obj
 0002:0000c110       ?ParseMBTypeISliceCabac@WelsDec@@YAHPEAUTagWelsDecoderContext@1@PEAUTagNeighborAvail@1@AEAI@Z$rtcFrameData 000000018006e110     parse_mb_syn_cabac.obj
 0002:0000c120       ?ParseMBTypePSliceCabac@WelsDec@@YAHPEAUTagWelsDecoderContext@1@PEAUTagNeighborAvail@1@AEAI@Z$rtcName$0 000000018006e120     parse_mb_syn_cabac.obj
 0002:0000c130       ?ParseMBTypePSliceCabac@WelsDec@@YAHPEAUTagWelsDecoderContext@1@PEAUTagNeighborAvail@1@AEAI@Z$rtcVarDesc 000000018006e130     parse_mb_syn_cabac.obj
 0002:0000c170       ?ParseMBTypePSliceCabac@WelsDec@@YAHPEAUTagWelsDecoderContext@1@PEAUTagNeighborAvail@1@AEAI@Z$rtcFrameData 000000018006e170     parse_mb_syn_cabac.obj
 0002:0000c180       ?ParseTransformSize8x8FlagCabac@WelsDec@@YAHPEAUTagWelsDecoderContext@1@PEAUTagNeighborAvail@1@AEA_N@Z$rtcName$0 000000018006e180     parse_mb_syn_cabac.obj
 0002:0000c190       ?ParseTransformSize8x8FlagCabac@WelsDec@@YAHPEAUTagWelsDecoderContext@1@PEAUTagNeighborAvail@1@AEA_N@Z$rtcVarDesc 000000018006e190     parse_mb_syn_cabac.obj
 0002:0000c1d0       ?ParseTransformSize8x8FlagCabac@WelsDec@@YAHPEAUTagWelsDecoderContext@1@PEAUTagNeighborAvail@1@AEA_N@Z$rtcFrameData 000000018006e1d0     parse_mb_syn_cabac.obj
 0002:0000c1e0       ?ParseSubMBTypeCabac@WelsDec@@YAHPEAUTagWelsDecoderContext@1@PEAUTagNeighborAvail@1@AEAI@Z$rtcName$0 000000018006e1e0     parse_mb_syn_cabac.obj
 0002:0000c1f0       ?ParseSubMBTypeCabac@WelsDec@@YAHPEAUTagWelsDecoderContext@1@PEAUTagNeighborAvail@1@AEAI@Z$rtcVarDesc 000000018006e1f0     parse_mb_syn_cabac.obj
 0002:0000c230       ?ParseSubMBTypeCabac@WelsDec@@YAHPEAUTagWelsDecoderContext@1@PEAUTagNeighborAvail@1@AEAI@Z$rtcFrameData 000000018006e230     parse_mb_syn_cabac.obj
 0002:0000c240       ?ParseIntraPredModeLumaCabac@WelsDec@@YAHPEAUTagWelsDecoderContext@1@AEAH@Z$rtcName$0 000000018006e240     parse_mb_syn_cabac.obj
 0002:0000c250       ?ParseIntraPredModeLumaCabac@WelsDec@@YAHPEAUTagWelsDecoderContext@1@AEAH@Z$rtcVarDesc 000000018006e250     parse_mb_syn_cabac.obj
 0002:0000c290       ?ParseIntraPredModeLumaCabac@WelsDec@@YAHPEAUTagWelsDecoderContext@1@AEAH@Z$rtcFrameData 000000018006e290     parse_mb_syn_cabac.obj
 0002:0000c2a0       ?ParseIntraPredModeChromaCabac@WelsDec@@YAHPEAUTagWelsDecoderContext@1@EAEAH@Z$rtcName$0 000000018006e2a0     parse_mb_syn_cabac.obj
 0002:0000c2a8       ?ParseIntraPredModeChromaCabac@WelsDec@@YAHPEAUTagWelsDecoderContext@1@EAEAH@Z$rtcName$1 000000018006e2a8     parse_mb_syn_cabac.obj
 0002:0000c2b0       ?ParseIntraPredModeChromaCabac@WelsDec@@YAHPEAUTagWelsDecoderContext@1@EAEAH@Z$rtcVarDesc 000000018006e2b0     parse_mb_syn_cabac.obj
 0002:0000c330       ?ParseIntraPredModeChromaCabac@WelsDec@@YAHPEAUTagWelsDecoderContext@1@EAEAH@Z$rtcFrameData 000000018006e330     parse_mb_syn_cabac.obj
 0002:0000c340       ?ParseInterMotionInfoCabac@WelsDec@@YAHPEAUTagWelsDecoderContext@1@PEAUTagNeighborAvail@1@PEAEQEAY1BO@1F3QEAY0BO@C@Z$rtcName$0 000000018006e340     parse_mb_syn_cabac.obj
 0002:0000c34c       ?ParseInterMotionInfoCabac@WelsDec@@YAHPEAUTagWelsDecoderContext@1@PEAUTagNeighborAvail@1@PEAEQEAY1BO@1F3QEAY0BO@C@Z$rtcName$1 000000018006e34c     parse_mb_syn_cabac.obj
 0002:0000c350       ?ParseInterMotionInfoCabac@WelsDec@@YAHPEAUTagWelsDecoderContext@1@PEAUTagNeighborAvail@1@PEAEQEAY1BO@1F3QEAY0BO@C@Z$rtcName$2 000000018006e350     parse_mb_syn_cabac.obj
 0002:0000c358       ?ParseInterMotionInfoCabac@WelsDec@@YAHPEAUTagWelsDecoderContext@1@PEAUTagNeighborAvail@1@PEAEQEAY1BO@1F3QEAY0BO@C@Z$rtcName$3 000000018006e358     parse_mb_syn_cabac.obj
 0002:0000c360       ?ParseInterMotionInfoCabac@WelsDec@@YAHPEAUTagWelsDecoderContext@1@PEAUTagNeighborAvail@1@PEAEQEAY1BO@1F3QEAY0BO@C@Z$rtcName$4 000000018006e360     parse_mb_syn_cabac.obj
 0002:0000c368       ?ParseInterMotionInfoCabac@WelsDec@@YAHPEAUTagWelsDecoderContext@1@PEAUTagNeighborAvail@1@PEAEQEAY1BO@1F3QEAY0BO@C@Z$rtcName$5 000000018006e368     parse_mb_syn_cabac.obj
 0002:0000c378       ?ParseInterMotionInfoCabac@WelsDec@@YAHPEAUTagWelsDecoderContext@1@PEAUTagNeighborAvail@1@PEAEQEAY1BO@1F3QEAY0BO@C@Z$rtcName$6 000000018006e378     parse_mb_syn_cabac.obj
 0002:0000c380       ?ParseInterMotionInfoCabac@WelsDec@@YAHPEAUTagWelsDecoderContext@1@PEAUTagNeighborAvail@1@PEAEQEAY1BO@1F3QEAY0BO@C@Z$rtcName$7 000000018006e380     parse_mb_syn_cabac.obj
 0002:0000c390       ?ParseInterMotionInfoCabac@WelsDec@@YAHPEAUTagWelsDecoderContext@1@PEAUTagNeighborAvail@1@PEAEQEAY1BO@1F3QEAY0BO@C@Z$rtcVarDesc 000000018006e390     parse_mb_syn_cabac.obj
 0002:0000c590       ?ParseInterMotionInfoCabac@WelsDec@@YAHPEAUTagWelsDecoderContext@1@PEAUTagNeighborAvail@1@PEAEQEAY1BO@1F3QEAY0BO@C@Z$rtcFrameData 000000018006e590     parse_mb_syn_cabac.obj
 0002:0000c5a0       ?ParseRefIdxCabac@WelsDec@@YAHPEAUTagWelsDecoderContext@1@PEAUTagNeighborAvail@1@PEAEQEAY0BO@CHHHHAEAC@Z$rtcName$0 000000018006e5a0     parse_mb_syn_cabac.obj
 0002:0000c5b0       ?ParseRefIdxCabac@WelsDec@@YAHPEAUTagWelsDecoderContext@1@PEAUTagNeighborAvail@1@PEAEQEAY0BO@CHHHHAEAC@Z$rtcVarDesc 000000018006e5b0     parse_mb_syn_cabac.obj
 0002:0000c5f0       ?ParseRefIdxCabac@WelsDec@@YAHPEAUTagWelsDecoderContext@1@PEAUTagNeighborAvail@1@PEAEQEAY0BO@CHHHHAEAC@Z$rtcFrameData 000000018006e5f0     parse_mb_syn_cabac.obj
 0002:0000c600       ?ParseMvdInfoCabac@WelsDec@@YAHPEAUTagWelsDecoderContext@1@PEAUTagNeighborAvail@1@QEAY0BO@CQEAY1BO@1FHCCAEAF@Z$rtcName$0 000000018006e600     parse_mb_syn_cabac.obj
 0002:0000c610       ?ParseMvdInfoCabac@WelsDec@@YAHPEAUTagWelsDecoderContext@1@PEAUTagNeighborAvail@1@QEAY0BO@CQEAY1BO@1FHCCAEAF@Z$rtcVarDesc 000000018006e610     parse_mb_syn_cabac.obj
 0002:0000c650       ?ParseMvdInfoCabac@WelsDec@@YAHPEAUTagWelsDecoderContext@1@PEAUTagNeighborAvail@1@QEAY0BO@CQEAY1BO@1FHCCAEAF@Z$rtcFrameData 000000018006e650     parse_mb_syn_cabac.obj
 0002:0000c660       ?ParseCbpInfoCabac@WelsDec@@YAHPEAUTagWelsDecoderContext@1@PEAUTagNeighborAvail@1@AEAI@Z$rtcName$0 000000018006e660     parse_mb_syn_cabac.obj
 0002:0000c670       ?ParseCbpInfoCabac@WelsDec@@YAHPEAUTagWelsDecoderContext@1@PEAUTagNeighborAvail@1@AEAI@Z$rtcName$1 000000018006e670     parse_mb_syn_cabac.obj
 0002:0000c678       ?ParseCbpInfoCabac@WelsDec@@YAHPEAUTagWelsDecoderContext@1@PEAUTagNeighborAvail@1@AEAI@Z$rtcName$2 000000018006e678     parse_mb_syn_cabac.obj
 0002:0000c680       ?ParseCbpInfoCabac@WelsDec@@YAHPEAUTagWelsDecoderContext@1@PEAUTagNeighborAvail@1@AEAI@Z$rtcVarDesc 000000018006e680     parse_mb_syn_cabac.obj
 0002:0000c740       ?ParseCbpInfoCabac@WelsDec@@YAHPEAUTagWelsDecoderContext@1@PEAUTagNeighborAvail@1@AEAI@Z$rtcFrameData 000000018006e740     parse_mb_syn_cabac.obj
 0002:0000c750       ?ParseDeltaQpCabac@WelsDec@@YAHPEAUTagWelsDecoderContext@1@AEAH@Z$rtcName$0 000000018006e750     parse_mb_syn_cabac.obj
 0002:0000c760       ?ParseDeltaQpCabac@WelsDec@@YAHPEAUTagWelsDecoderContext@1@AEAH@Z$rtcVarDesc 000000018006e760     parse_mb_syn_cabac.obj
 0002:0000c7a0       ?ParseDeltaQpCabac@WelsDec@@YAHPEAUTagWelsDecoderContext@1@AEAH@Z$rtcFrameData 000000018006e7a0     parse_mb_syn_cabac.obj
 0002:0000c7b0       ?ParseSignificantMapCabac@WelsDec@@YAHPEAHHPEAUTagWelsDecoderContext@1@AEAI@Z$rtcName$0 000000018006e7b0     parse_mb_syn_cabac.obj
 0002:0000c7c0       ?ParseSignificantMapCabac@WelsDec@@YAHPEAHHPEAUTagWelsDecoderContext@1@AEAI@Z$rtcVarDesc 000000018006e7c0     parse_mb_syn_cabac.obj
 0002:0000c800       ?ParseSignificantMapCabac@WelsDec@@YAHPEAHHPEAUTagWelsDecoderContext@1@AEAI@Z$rtcFrameData 000000018006e800     parse_mb_syn_cabac.obj
 0002:0000c810       ?ParseSignificantCoeffCabac@WelsDec@@YAHPEAHHPEAUTagWelsDecoderContext@1@@Z$rtcName$0 000000018006e810     parse_mb_syn_cabac.obj
 0002:0000c820       ?ParseSignificantCoeffCabac@WelsDec@@YAHPEAHHPEAUTagWelsDecoderContext@1@@Z$rtcVarDesc 000000018006e820     parse_mb_syn_cabac.obj
 0002:0000c860       ?ParseSignificantCoeffCabac@WelsDec@@YAHPEAHHPEAUTagWelsDecoderContext@1@@Z$rtcFrameData 000000018006e860     parse_mb_syn_cabac.obj
 0002:0000c870       ?ParseResidualBlockCabac@WelsDec@@YAHPEAUTagNeighborAvail@1@PEAEPEAUTagBitStringAux@WelsCommon@@HHPEBEHPEAFEPEAUTagWelsDecoderContext@1@@Z$rtcName$0 000000018006e870     parse_mb_syn_cabac.obj
 0002:0000c880       ?ParseResidualBlockCabac@WelsDec@@YAHPEAUTagNeighborAvail@1@PEAEPEAUTagBitStringAux@WelsCommon@@HHPEBEHPEAFEPEAUTagWelsDecoderContext@1@@Z$rtcName$1 000000018006e880     parse_mb_syn_cabac.obj
 0002:0000c890       ?ParseResidualBlockCabac@WelsDec@@YAHPEAUTagNeighborAvail@1@PEAEPEAUTagBitStringAux@WelsCommon@@HHPEBEHPEAFEPEAUTagWelsDecoderContext@1@@Z$rtcName$2 000000018006e890     parse_mb_syn_cabac.obj
 0002:0000c8a0       ?ParseResidualBlockCabac@WelsDec@@YAHPEAUTagNeighborAvail@1@PEAEPEAUTagBitStringAux@WelsCommon@@HHPEBEHPEAFEPEAUTagWelsDecoderContext@1@@Z$rtcName$3 000000018006e8a0     parse_mb_syn_cabac.obj
 0002:0000c8b0       ?ParseResidualBlockCabac@WelsDec@@YAHPEAUTagNeighborAvail@1@PEAEPEAUTagBitStringAux@WelsCommon@@HHPEBEHPEAFEPEAUTagWelsDecoderContext@1@@Z$rtcVarDesc 000000018006e8b0     parse_mb_syn_cabac.obj
 0002:0000c9b0       ?ParseResidualBlockCabac@WelsDec@@YAHPEAUTagNeighborAvail@1@PEAEPEAUTagBitStringAux@WelsCommon@@HHPEBEHPEAFEPEAUTagWelsDecoderContext@1@@Z$rtcFrameData 000000018006e9b0     parse_mb_syn_cabac.obj
 0002:0000c9c0       ?ParseResidualBlockCabac8x8@WelsDec@@YAHPEAUTagNeighborAvail@1@PEAEPEAUTagBitStringAux@WelsCommon@@HHPEBEHPEAFEPEAUTagWelsDecoderContext@1@@Z$rtcName$0 000000018006e9c0     parse_mb_syn_cabac.obj
 0002:0000c9d0       ?ParseResidualBlockCabac8x8@WelsDec@@YAHPEAUTagNeighborAvail@1@PEAEPEAUTagBitStringAux@WelsCommon@@HHPEBEHPEAFEPEAUTagWelsDecoderContext@1@@Z$rtcName$1 000000018006e9d0     parse_mb_syn_cabac.obj
 0002:0000c9e0       ?ParseResidualBlockCabac8x8@WelsDec@@YAHPEAUTagNeighborAvail@1@PEAEPEAUTagBitStringAux@WelsCommon@@HHPEBEHPEAFEPEAUTagWelsDecoderContext@1@@Z$rtcName$2 000000018006e9e0     parse_mb_syn_cabac.obj
 0002:0000c9f0       ?ParseResidualBlockCabac8x8@WelsDec@@YAHPEAUTagNeighborAvail@1@PEAEPEAUTagBitStringAux@WelsCommon@@HHPEBEHPEAFEPEAUTagWelsDecoderContext@1@@Z$rtcVarDesc 000000018006e9f0     parse_mb_syn_cabac.obj
 0002:0000cab0       ?ParseResidualBlockCabac8x8@WelsDec@@YAHPEAUTagNeighborAvail@1@PEAEPEAUTagBitStringAux@WelsCommon@@HHPEBEHPEAFEPEAUTagWelsDecoderContext@1@@Z$rtcFrameData 000000018006eab0     parse_mb_syn_cabac.obj
 0002:0000cac0       ?UpdateP16x16MvdCabac@WelsDec@@YAXPEAUTagDqLayer@1@QEAFC@Z$rtcName$0 000000018006eac0     parse_mb_syn_cabac.obj
 0002:0000cad0       ?UpdateP16x16MvdCabac@WelsDec@@YAXPEAUTagDqLayer@1@QEAFC@Z$rtcVarDesc 000000018006ead0     parse_mb_syn_cabac.obj
 0002:0000cb10       ?UpdateP16x16MvdCabac@WelsDec@@YAXPEAUTagDqLayer@1@QEAFC@Z$rtcFrameData 000000018006eb10     parse_mb_syn_cabac.obj
 0002:0000cb20       ?UpdateP16x8MvdCabac@WelsDec@@YAXPEAUTagDqLayer@1@QEAY1BO@1FHQEAFC@Z$rtcName$0 000000018006eb20     parse_mb_syn_cabac.obj
 0002:0000cb30       ?UpdateP16x8MvdCabac@WelsDec@@YAXPEAUTagDqLayer@1@QEAY1BO@1FHQEAFC@Z$rtcVarDesc 000000018006eb30     parse_mb_syn_cabac.obj
 0002:0000cb70       ?UpdateP16x8MvdCabac@WelsDec@@YAXPEAUTagDqLayer@1@QEAY1BO@1FHQEAFC@Z$rtcFrameData 000000018006eb70     parse_mb_syn_cabac.obj
 0002:0000cb80       ?UpdateP8x16MvdCabac@WelsDec@@YAXPEAUTagDqLayer@1@QEAY1BO@1FHQEAFC@Z$rtcName$0 000000018006eb80     parse_mb_syn_cabac.obj
 0002:0000cb90       ?UpdateP8x16MvdCabac@WelsDec@@YAXPEAUTagDqLayer@1@QEAY1BO@1FHQEAFC@Z$rtcVarDesc 000000018006eb90     parse_mb_syn_cabac.obj
 0002:0000cbd0       ?UpdateP8x16MvdCabac@WelsDec@@YAXPEAUTagDqLayer@1@QEAY1BO@1FHQEAFC@Z$rtcFrameData 000000018006ebd0     parse_mb_syn_cabac.obj
 0002:0000cc00       ?g_ksI16PredInfo@WelsDec@@3QBUTagI16PredInfo@1@B 000000018006ec00     parse_mb_syn_cavlc.obj
 0002:0000cc10       ?g_ksChromaPredInfo@WelsDec@@3QBUTagI16PredInfo@1@B 000000018006ec10     parse_mb_syn_cavlc.obj
 0002:0000cc20       ?g_ksI4PredInfo@WelsDec@@3QBUTagI4PredInfo@1@B 000000018006ec20     parse_mb_syn_cavlc.obj
 0002:0000cc48       ?g_ksInterSubMbTypeInfo@WelsDec@@3QBUTagPartMbInfo@1@B 000000018006ec48     parse_mb_syn_cavlc.obj
 0002:0000cc70       ?g_kuiPrefix8BitsTable@WelsDec@@3QBIB 000000018006ec70     parse_mb_syn_cavlc.obj
 0002:0000ccb0       ?BsGetSe@WelsDec@@YAHPEAUTagBitStringAux@WelsCommon@@PEAH@Z$rtcName$0 000000018006ecb0     parse_mb_syn_cavlc.obj
 0002:0000ccc0       ?BsGetSe@WelsDec@@YAHPEAUTagBitStringAux@WelsCommon@@PEAH@Z$rtcVarDesc 000000018006ecc0     parse_mb_syn_cavlc.obj
 0002:0000cd00       ?BsGetSe@WelsDec@@YAHPEAUTagBitStringAux@WelsCommon@@PEAH@Z$rtcFrameData 000000018006ed00     parse_mb_syn_cavlc.obj
 0002:0000cd10       ?WelsResidualBlockCavlc@WelsDec@@YAHPEAUTagVlcTable@1@PEAEPEAUTagBitStringAux@WelsCommon@@HHPEBEHPEAFEPEAUTagWelsDecoderContext@1@@Z$rtcName$0 000000018006ed10     parse_mb_syn_cavlc.obj
 0002:0000cd18       ?WelsResidualBlockCavlc@WelsDec@@YAHPEAUTagVlcTable@1@PEAEPEAUTagBitStringAux@WelsCommon@@HHPEBEHPEAFEPEAUTagWelsDecoderContext@1@@Z$rtcName$1 000000018006ed18     parse_mb_syn_cavlc.obj
 0002:0000cd24       ?WelsResidualBlockCavlc@WelsDec@@YAHPEAUTagVlcTable@1@PEAEPEAUTagBitStringAux@WelsCommon@@HHPEBEHPEAFEPEAUTagWelsDecoderContext@1@@Z$rtcName$2 000000018006ed24     parse_mb_syn_cavlc.obj
 0002:0000cd30       ?WelsResidualBlockCavlc@WelsDec@@YAHPEAUTagVlcTable@1@PEAEPEAUTagBitStringAux@WelsCommon@@HHPEBEHPEAFEPEAUTagWelsDecoderContext@1@@Z$rtcName$3 000000018006ed30     parse_mb_syn_cavlc.obj
 0002:0000cd40       ?WelsResidualBlockCavlc@WelsDec@@YAHPEAUTagVlcTable@1@PEAEPEAUTagBitStringAux@WelsCommon@@HHPEBEHPEAFEPEAUTagWelsDecoderContext@1@@Z$rtcName$4 000000018006ed40     parse_mb_syn_cavlc.obj
 0002:0000cd50       ?WelsResidualBlockCavlc@WelsDec@@YAHPEAUTagVlcTable@1@PEAEPEAUTagBitStringAux@WelsCommon@@HHPEBEHPEAFEPEAUTagWelsDecoderContext@1@@Z$rtcName$5 000000018006ed50     parse_mb_syn_cavlc.obj
 0002:0000cd60       ?WelsResidualBlockCavlc@WelsDec@@YAHPEAUTagVlcTable@1@PEAEPEAUTagBitStringAux@WelsCommon@@HHPEBEHPEAFEPEAUTagWelsDecoderContext@1@@Z$rtcName$6 000000018006ed60     parse_mb_syn_cavlc.obj
 0002:0000cd70       ?WelsResidualBlockCavlc@WelsDec@@YAHPEAUTagVlcTable@1@PEAEPEAUTagBitStringAux@WelsCommon@@HHPEBEHPEAFEPEAUTagWelsDecoderContext@1@@Z$rtcVarDesc 000000018006ed70     parse_mb_syn_cavlc.obj
 0002:0000cf30       ?WelsResidualBlockCavlc@WelsDec@@YAHPEAUTagVlcTable@1@PEAEPEAUTagBitStringAux@WelsCommon@@HHPEBEHPEAFEPEAUTagWelsDecoderContext@1@@Z$rtcFrameData 000000018006ef30     parse_mb_syn_cavlc.obj
 0002:0000cf40       ?WelsResidualBlockCavlc8x8@WelsDec@@YAHPEAUTagVlcTable@1@PEAEPEAUTagBitStringAux@WelsCommon@@HHPEBEHPEAFHEPEAUTagWelsDecoderContext@1@@Z$rtcName$0 000000018006ef40     parse_mb_syn_cavlc.obj
 0002:0000cf48       ?WelsResidualBlockCavlc8x8@WelsDec@@YAHPEAUTagVlcTable@1@PEAEPEAUTagBitStringAux@WelsCommon@@HHPEBEHPEAFHEPEAUTagWelsDecoderContext@1@@Z$rtcName$1 000000018006ef48     parse_mb_syn_cavlc.obj
 0002:0000cf54       ?WelsResidualBlockCavlc8x8@WelsDec@@YAHPEAUTagVlcTable@1@PEAEPEAUTagBitStringAux@WelsCommon@@HHPEBEHPEAFHEPEAUTagWelsDecoderContext@1@@Z$rtcName$2 000000018006ef54     parse_mb_syn_cavlc.obj
 0002:0000cf60       ?WelsResidualBlockCavlc8x8@WelsDec@@YAHPEAUTagVlcTable@1@PEAEPEAUTagBitStringAux@WelsCommon@@HHPEBEHPEAFHEPEAUTagWelsDecoderContext@1@@Z$rtcName$3 000000018006ef60     parse_mb_syn_cavlc.obj
 0002:0000cf70       ?WelsResidualBlockCavlc8x8@WelsDec@@YAHPEAUTagVlcTable@1@PEAEPEAUTagBitStringAux@WelsCommon@@HHPEBEHPEAFHEPEAUTagWelsDecoderContext@1@@Z$rtcName$4 000000018006ef70     parse_mb_syn_cavlc.obj
 0002:0000cf80       ?WelsResidualBlockCavlc8x8@WelsDec@@YAHPEAUTagVlcTable@1@PEAEPEAUTagBitStringAux@WelsCommon@@HHPEBEHPEAFHEPEAUTagWelsDecoderContext@1@@Z$rtcName$5 000000018006ef80     parse_mb_syn_cavlc.obj
 0002:0000cf90       ?WelsResidualBlockCavlc8x8@WelsDec@@YAHPEAUTagVlcTable@1@PEAEPEAUTagBitStringAux@WelsCommon@@HHPEBEHPEAFHEPEAUTagWelsDecoderContext@1@@Z$rtcName$6 000000018006ef90     parse_mb_syn_cavlc.obj
 0002:0000cfa0       ?WelsResidualBlockCavlc8x8@WelsDec@@YAHPEAUTagVlcTable@1@PEAEPEAUTagBitStringAux@WelsCommon@@HHPEBEHPEAFHEPEAUTagWelsDecoderContext@1@@Z$rtcVarDesc 000000018006efa0     parse_mb_syn_cavlc.obj
 0002:0000d160       ?WelsResidualBlockCavlc8x8@WelsDec@@YAHPEAUTagVlcTable@1@PEAEPEAUTagBitStringAux@WelsCommon@@HHPEBEHPEAFHEPEAUTagWelsDecoderContext@1@@Z$rtcFrameData 000000018006f160     parse_mb_syn_cavlc.obj
 0002:0000d170       ?ParseInterInfo@WelsDec@@YAHPEAUTagWelsDecoderContext@1@QEAY1BO@1FQEAY0BO@CPEAUTagBitStringAux@WelsCommon@@@Z$rtcName$0 000000018006f170     parse_mb_syn_cavlc.obj
 0002:0000d180       ?ParseInterInfo@WelsDec@@YAHPEAUTagWelsDecoderContext@1@QEAY1BO@1FQEAY0BO@CPEAUTagBitStringAux@WelsCommon@@@Z$rtcName$1 000000018006f180     parse_mb_syn_cavlc.obj
 0002:0000d190       ?ParseInterInfo@WelsDec@@YAHPEAUTagWelsDecoderContext@1@QEAY1BO@1FQEAY0BO@CPEAUTagBitStringAux@WelsCommon@@@Z$rtcName$2 000000018006f190     parse_mb_syn_cavlc.obj
 0002:0000d194       ?ParseInterInfo@WelsDec@@YAHPEAUTagWelsDecoderContext@1@QEAY1BO@1FQEAY0BO@CPEAUTagBitStringAux@WelsCommon@@@Z$rtcName$3 000000018006f194     parse_mb_syn_cavlc.obj
 0002:0000d19c       ?ParseInterInfo@WelsDec@@YAHPEAUTagWelsDecoderContext@1@QEAY1BO@1FQEAY0BO@CPEAUTagBitStringAux@WelsCommon@@@Z$rtcName$4 000000018006f19c     parse_mb_syn_cavlc.obj
 0002:0000d1a4       ?ParseInterInfo@WelsDec@@YAHPEAUTagWelsDecoderContext@1@QEAY1BO@1FQEAY0BO@CPEAUTagBitStringAux@WelsCommon@@@Z$rtcName$10 000000018006f1a4     parse_mb_syn_cavlc.obj
 0002:0000d1a8       ?ParseInterInfo@WelsDec@@YAHPEAUTagWelsDecoderContext@1@QEAY1BO@1FQEAY0BO@CPEAUTagBitStringAux@WelsCommon@@@Z$rtcName$5 000000018006f1a8     parse_mb_syn_cavlc.obj
 0002:0000d1b0       ?ParseInterInfo@WelsDec@@YAHPEAUTagWelsDecoderContext@1@QEAY1BO@1FQEAY0BO@CPEAUTagBitStringAux@WelsCommon@@@Z$rtcName$6 000000018006f1b0     parse_mb_syn_cavlc.obj
 0002:0000d1b8       ?ParseInterInfo@WelsDec@@YAHPEAUTagWelsDecoderContext@1@QEAY1BO@1FQEAY0BO@CPEAUTagBitStringAux@WelsCommon@@@Z$rtcName$7 000000018006f1b8     parse_mb_syn_cavlc.obj
 0002:0000d1c0       ?ParseInterInfo@WelsDec@@YAHPEAUTagWelsDecoderContext@1@QEAY1BO@1FQEAY0BO@CPEAUTagBitStringAux@WelsCommon@@@Z$rtcName$8 000000018006f1c0     parse_mb_syn_cavlc.obj
 0002:0000d1d0       ?ParseInterInfo@WelsDec@@YAHPEAUTagWelsDecoderContext@1@QEAY1BO@1FQEAY0BO@CPEAUTagBitStringAux@WelsCommon@@@Z$rtcName$9 000000018006f1d0     parse_mb_syn_cavlc.obj
 0002:0000d1e0       ?ParseInterInfo@WelsDec@@YAHPEAUTagWelsDecoderContext@1@QEAY1BO@1FQEAY0BO@CPEAUTagBitStringAux@WelsCommon@@@Z$rtcVarDesc 000000018006f1e0     parse_mb_syn_cavlc.obj
 0002:0000d4a0       ?ParseInterInfo@WelsDec@@YAHPEAUTagWelsDecoderContext@1@QEAY1BO@1FQEAY0BO@CPEAUTagBitStringAux@WelsCommon@@@Z$rtcFrameData 000000018006f4a0     parse_mb_syn_cavlc.obj
 0002:0000d4b0       ?CavlcGetTrailingOnesAndTotalCoeff@WelsDec@@YAHAEAE0PEAUTagReadBitsCache@1@PEAUTagVlcTable@1@_NC@Z$rtcName$0 000000018006f4b0     parse_mb_syn_cavlc.obj
 0002:0000d4d0       ?CavlcGetTrailingOnesAndTotalCoeff@WelsDec@@YAHAEAE0PEAUTagReadBitsCache@1@PEAUTagVlcTable@1@_NC@Z$rtcVarDesc 000000018006f4d0     parse_mb_syn_cavlc.obj
 0002:0000d510       ?CavlcGetTrailingOnesAndTotalCoeff@WelsDec@@YAHAEAE0PEAUTagReadBitsCache@1@PEAUTagVlcTable@1@_NC@Z$rtcFrameData 000000018006f510     parse_mb_syn_cavlc.obj
 0002:0000d560       ?g_kuiPrefix8BitsTable@WelsDec@@3QBIB 000000018006f560     pic_queue.obj
 0002:0000d5e0       ?g_kuiPrefix8BitsTable@WelsDec@@3QBIB 000000018006f5e0     rec_mb.obj
 0002:0000d620       ?RecI8x8Luma@WelsDec@@YAHHPEAUTagWelsDecoderContext@1@PEAFPEAUTagDqLayer@1@@Z$rtcName$0 000000018006f620     rec_mb.obj
 0002:0000d630       ?RecI8x8Luma@WelsDec@@YAHHPEAUTagWelsDecoderContext@1@PEAFPEAUTagDqLayer@1@@Z$rtcName$1 000000018006f630     rec_mb.obj
 0002:0000d640       ?RecI8x8Luma@WelsDec@@YAHHPEAUTagWelsDecoderContext@1@PEAFPEAUTagDqLayer@1@@Z$rtcVarDesc 000000018006f640     rec_mb.obj
 0002:0000d6c0       ?RecI8x8Luma@WelsDec@@YAHHPEAUTagWelsDecoderContext@1@PEAFPEAUTagDqLayer@1@@Z$rtcFrameData 000000018006f6c0     rec_mb.obj
 0002:0000d6d0       ?GetInterPred@WelsDec@@YAXPEAE00PEAUTagWelsDecoderContext@1@@Z$rtcName$0 000000018006f6d0     rec_mb.obj
 0002:0000d6dc       ?GetInterPred@WelsDec@@YAXPEAE00PEAUTagWelsDecoderContext@1@@Z$rtcName$1 000000018006f6dc     rec_mb.obj
 0002:0000d6f0       ?GetInterPred@WelsDec@@YAXPEAE00PEAUTagWelsDecoderContext@1@@Z$rtcVarDesc 000000018006f6f0     rec_mb.obj
 0002:0000d770       ?GetInterPred@WelsDec@@YAXPEAE00PEAUTagWelsDecoderContext@1@@Z$rtcFrameData 000000018006f770     rec_mb.obj
 0002:0000d780       ?g_kuiPrefix8BitsTable@WelsDec@@3QBIB 000000018006f780     welsDecoderExt.obj
 0002:0000d7c0       ?DecodeFrame@CWelsDecoder@WelsDec@@UEAA?AW4DECODING_STATE@@PEBEHPEAPEAEPEAHAEAH3@Z$rtcName$0 000000018006f7c0     welsDecoderExt.obj
 0002:0000d7d0       ?DecodeFrame@CWelsDecoder@WelsDec@@UEAA?AW4DECODING_STATE@@PEBEHPEAPEAEPEAHAEAH3@Z$rtcVarDesc 000000018006f7d0     welsDecoderExt.obj
 0002:0000d810       ?DecodeFrame@CWelsDecoder@WelsDec@@UEAA?AW4DECODING_STATE@@PEBEHPEAPEAEPEAHAEAH3@Z$rtcFrameData 000000018006f810     welsDecoderExt.obj
 0002:0000d820       ?ResetDecoder@CWelsDecoder@WelsDec@@AEAAHXZ$rtcName$0 000000018006f820     welsDecoderExt.obj
 0002:0000d830       ?ResetDecoder@CWelsDecoder@WelsDec@@AEAAHXZ$rtcVarDesc 000000018006f830     welsDecoderExt.obj
 0002:0000d870       ?ResetDecoder@CWelsDecoder@WelsDec@@AEAAHXZ$rtcFrameData 000000018006f870     welsDecoderExt.obj
 0002:0000d880       WelsTime$rtcName$0         000000018006f880     welsDecoderExt.obj
 0002:0000d890       WelsTime$rtcVarDesc        000000018006f890     welsDecoderExt.obj
 0002:0000d8d0       WelsTime$rtcFrameData      000000018006f8d0     welsDecoderExt.obj
 0002:0000de40       ?_RTC_ErrorMessages@@3QBQEBDB 000000018006fe40     MSVCRTD:error.obj
 0002:0000de70       ?_RTC_NoFalsePositives@@3QBHB 000000018006fe70     MSVCRTD:error.obj
 0002:0000de88       ?stack_premsg@@3QBDB       000000018006fe88     MSVCRTD:error.obj
 0002:0000dea8       ?stack_postmsg@@3QBDB      000000018006fea8     MSVCRTD:error.obj
 0002:0000dec0       ?uninit_premsg@@3QBDB      000000018006fec0     MSVCRTD:error.obj
 0002:0000ded0       ?uninit_postmsg@@3QBDB     000000018006fed0     MSVCRTD:error.obj
 0002:0000e430       GS_ExceptionPointers       0000000180070430     MSVCRTD:gs_report.obj
 0002:0000e448       ?_RTC_errlist@@3QBQEBDB    0000000180070448     MSVCRTD:userapi.obj
 0002:0000e528       ?mspdbName@@3QB_WB         0000000180070528     MSVCRTD:pdblkup.obj
 0002:0000e558       ?debugCrtFileName@@3QB_WB  0000000180070558     MSVCRTD:pdblkup.obj
 0002:0000e6b0       ?dllExt@?1??GetPdbDllPathFromFilePath@@YAHPEB_WPEA_W_K@Z@4QB_WB 00000001800706b0     MSVCRTD:pdblkup.obj
 0002:0000e6b8       ?mspdbFilename@?1??GetPdbDllPathFromFilePath@@YAHPEB_WPEA_W_K@Z@4QB_WB 00000001800706b8     MSVCRTD:pdblkup.obj
 0002:0000f148       _RTC_InitBase.rtc$IMZ      0000000180071148     copy_mb.obj
 0002:0000f150       _RTC_InitBase.rtc$IMZ      0000000180071150     cpu.obj
 0002:0000f158       _RTC_InitBase.rtc$IMZ      0000000180071158     crt_util_safe_x.obj
 0002:0000f160       _RTC_InitBase.rtc$IMZ      0000000180071160     deblocking_common.obj
 0002:0000f168       _RTC_InitBase.rtc$IMZ      0000000180071168     expand_pic.obj
 0002:0000f170       _RTC_InitBase.rtc$IMZ      0000000180071170     intra_pred_common.obj
 0002:0000f178       _RTC_InitBase.rtc$IMZ      0000000180071178     mc.obj
 0002:0000f180       _RTC_InitBase.rtc$IMZ      0000000180071180     memory_align.obj
 0002:0000f188       _RTC_InitBase.rtc$IMZ      0000000180071188     sad_common.obj
 0002:0000f190       _RTC_InitBase.rtc$IMZ      0000000180071190     utils.obj
 0002:0000f198       _RTC_InitBase.rtc$IMZ      0000000180071198     welsCodecTrace.obj
 0002:0000f1a0       _RTC_InitBase.rtc$IMZ      00000001800711a0     WelsThreadLib.obj
 0002:0000f1a8       _RTC_InitBase.rtc$IMZ      00000001800711a8     au_parser.obj
 0002:0000f1b0       _RTC_InitBase.rtc$IMZ      00000001800711b0     bit_stream.obj
 0002:0000f1b8       _RTC_InitBase.rtc$IMZ      00000001800711b8     cabac_decoder.obj
 0002:0000f1c0       _RTC_InitBase.rtc$IMZ      00000001800711c0     deblocking.obj
 0002:0000f1c8       _RTC_InitBase.rtc$IMZ      00000001800711c8     decoder.obj
 0002:0000f1d0       _RTC_InitBase.rtc$IMZ      00000001800711d0     decoder_core.obj
 0002:0000f1d8       _RTC_InitBase.rtc$IMZ      00000001800711d8     decode_mb_aux.obj
 0002:0000f1e0       _RTC_InitBase.rtc$IMZ      00000001800711e0     decode_slice.obj
 0002:0000f1e8       _RTC_InitBase.rtc$IMZ      00000001800711e8     error_concealment.obj
 0002:0000f1f0       _RTC_InitBase.rtc$IMZ      00000001800711f0     fmo.obj
 0002:0000f1f8       _RTC_InitBase.rtc$IMZ      00000001800711f8     get_intra_predictor.obj
 0002:0000f200       _RTC_InitBase.rtc$IMZ      0000000180071200     manage_dec_ref.obj
 0002:0000f208       _RTC_InitBase.rtc$IMZ      0000000180071208     memmgr_nal_unit.obj
 0002:0000f210       _RTC_InitBase.rtc$IMZ      0000000180071210     mv_pred.obj
 0002:0000f218       _RTC_InitBase.rtc$IMZ      0000000180071218     parse_mb_syn_cabac.obj
 0002:0000f220       _RTC_InitBase.rtc$IMZ      0000000180071220     parse_mb_syn_cavlc.obj
 0002:0000f228       _RTC_InitBase.rtc$IMZ      0000000180071228     pic_queue.obj
 0002:0000f230       _RTC_InitBase.rtc$IMZ      0000000180071230     rec_mb.obj
 0002:0000f238       _RTC_InitBase.rtc$IMZ      0000000180071238     welsDecoderExt.obj
 0002:0000f240       _RTC_InitBase.rtc$IMZ      0000000180071240     AdaptiveQuantization.obj
 0002:0000f258       _RTC_Shutdown.rtc$TMZ      0000000180071258     copy_mb.obj
 0002:0000f260       _RTC_Shutdown.rtc$TMZ      0000000180071260     cpu.obj
 0002:0000f268       _RTC_Shutdown.rtc$TMZ      0000000180071268     crt_util_safe_x.obj
 0002:0000f270       _RTC_Shutdown.rtc$TMZ      0000000180071270     deblocking_common.obj
 0002:0000f278       _RTC_Shutdown.rtc$TMZ      0000000180071278     expand_pic.obj
 0002:0000f280       _RTC_Shutdown.rtc$TMZ      0000000180071280     intra_pred_common.obj
 0002:0000f288       _RTC_Shutdown.rtc$TMZ      0000000180071288     mc.obj
 0002:0000f290       _RTC_Shutdown.rtc$TMZ      0000000180071290     memory_align.obj
 0002:0000f298       _RTC_Shutdown.rtc$TMZ      0000000180071298     sad_common.obj
 0002:0000f2a0       _RTC_Shutdown.rtc$TMZ      00000001800712a0     utils.obj
 0002:0000f2a8       _RTC_Shutdown.rtc$TMZ      00000001800712a8     welsCodecTrace.obj
 0002:0000f2b0       _RTC_Shutdown.rtc$TMZ      00000001800712b0     WelsThreadLib.obj
 0002:0000f2b8       _RTC_Shutdown.rtc$TMZ      00000001800712b8     au_parser.obj
 0002:0000f2c0       _RTC_Shutdown.rtc$TMZ      00000001800712c0     bit_stream.obj
 0002:0000f2c8       _RTC_Shutdown.rtc$TMZ      00000001800712c8     cabac_decoder.obj
 0002:0000f2d0       _RTC_Shutdown.rtc$TMZ      00000001800712d0     deblocking.obj
 0002:0000f2d8       _RTC_Shutdown.rtc$TMZ      00000001800712d8     decoder.obj
 0002:0000f2e0       _RTC_Shutdown.rtc$TMZ      00000001800712e0     decoder_core.obj
 0002:0000f2e8       _RTC_Shutdown.rtc$TMZ      00000001800712e8     decode_mb_aux.obj
 0002:0000f2f0       _RTC_Shutdown.rtc$TMZ      00000001800712f0     decode_slice.obj
 0002:0000f2f8       _RTC_Shutdown.rtc$TMZ      00000001800712f8     error_concealment.obj
 0002:0000f300       _RTC_Shutdown.rtc$TMZ      0000000180071300     fmo.obj
 0002:0000f308       _RTC_Shutdown.rtc$TMZ      0000000180071308     get_intra_predictor.obj
 0002:0000f310       _RTC_Shutdown.rtc$TMZ      0000000180071310     manage_dec_ref.obj
 0002:0000f318       _RTC_Shutdown.rtc$TMZ      0000000180071318     memmgr_nal_unit.obj
 0002:0000f320       _RTC_Shutdown.rtc$TMZ      0000000180071320     mv_pred.obj
 0002:0000f328       _RTC_Shutdown.rtc$TMZ      0000000180071328     parse_mb_syn_cabac.obj
 0002:0000f330       _RTC_Shutdown.rtc$TMZ      0000000180071330     parse_mb_syn_cavlc.obj
 0002:0000f338       _RTC_Shutdown.rtc$TMZ      0000000180071338     pic_queue.obj
 0002:0000f340       _RTC_Shutdown.rtc$TMZ      0000000180071340     rec_mb.obj
 0002:0000f348       _RTC_Shutdown.rtc$TMZ      0000000180071348     welsDecoderExt.obj
 0002:0000f350       _RTC_Shutdown.rtc$TMZ      0000000180071350     AdaptiveQuantization.obj
 0002:0000f360       $unwind$?WelsCopy4x4_c@@YAXPEAEH0H@Z 0000000180071360     copy_mb.obj
 0002:0000f370       $unwind$?WelsCopy8x4_c@@YAXPEAEH0H@Z 0000000180071370     copy_mb.obj
 0002:0000f380       $unwind$?WelsCopy4x8_c@@YAXPEAEH0H@Z 0000000180071380     copy_mb.obj
 0002:0000f390       $unwind$?WelsCopy8x8_c@@YAXPEAEH0H@Z 0000000180071390     copy_mb.obj
 0002:0000f3a0       $unwind$?WelsCopy8x16_c@@YAXPEAEH0H@Z 00000001800713a0     copy_mb.obj
 0002:0000f3b0       $unwind$?WelsCopy16x8_c@@YAXPEAEH0H@Z 00000001800713b0     copy_mb.obj
 0002:0000f3c0       $unwind$?WelsCopy16x16_c@@YAXPEAEH0H@Z 00000001800713c0     copy_mb.obj
 0002:0000f3d0       $unwind$WelsCPUFeatureDetect 00000001800713d0     cpu.obj
 0002:0000f3e0       $unwind$localtime_s        00000001800713e0     crt_util_safe_x.obj
 0002:0000f3f0       $unwind$__local_stdio_printf_options 00000001800713f0     crt_util_safe_x.obj
 0002:0000f400       $unwind$_vsnprintf_s_l     0000000180071400     crt_util_safe_x.obj
 0002:0000f410       $unwind$vsnprintf_s        0000000180071410     crt_util_safe_x.obj
 0002:0000f420       $unwind$WelsSnprintf       0000000180071420     crt_util_safe_x.obj
 0002:0000f438       $unwind$WelsStrncpy        0000000180071438     crt_util_safe_x.obj
 0002:0000f448       $unwind$WelsStrcat         0000000180071448     crt_util_safe_x.obj
 0002:0000f458       $unwind$WelsVsnprintf      0000000180071458     crt_util_safe_x.obj
 0002:0000f468       $unwind$WelsFopen          0000000180071468     crt_util_safe_x.obj
 0002:0000f480       $unwind$WelsFclose         0000000180071480     crt_util_safe_x.obj
 0002:0000f490       $unwind$WelsFwrite         0000000180071490     crt_util_safe_x.obj
 0002:0000f4a0       $unwind$WelsFseek          00000001800714a0     crt_util_safe_x.obj
 0002:0000f4b0       $unwind$WelsFflush         00000001800714b0     crt_util_safe_x.obj
 0002:0000f4c0       $unwind$WelsGetTimeOfDay   00000001800714c0     crt_util_safe_x.obj
 0002:0000f4d0       $unwind$WelsStrftime       00000001800714d0     crt_util_safe_x.obj
 0002:0000f4e8       $unwind$WelsGetMillisecond 00000001800714e8     crt_util_safe_x.obj
 0002:0000f4f8       $unwind$?DeblockLumaLt4V_c@@YAXPEAEHHHPEAC@Z 00000001800714f8     deblocking_common.obj
 0002:0000f508       $unwind$?DeblockLumaEq4V_c@@YAXPEAEHHH@Z 0000000180071508     deblocking_common.obj
 0002:0000f518       $unwind$?DeblockLumaLt4H_c@@YAXPEAEHHHPEAC@Z 0000000180071518     deblocking_common.obj
 0002:0000f528       $unwind$?DeblockLumaEq4H_c@@YAXPEAEHHH@Z 0000000180071528     deblocking_common.obj
 0002:0000f538       $unwind$?DeblockChromaLt4V_c@@YAXPEAE0HHHPEAC@Z 0000000180071538     deblocking_common.obj
 0002:0000f548       $unwind$?DeblockChromaEq4V_c@@YAXPEAE0HHH@Z 0000000180071548     deblocking_common.obj
 0002:0000f558       $unwind$?DeblockChromaLt4H_c@@YAXPEAE0HHHPEAC@Z 0000000180071558     deblocking_common.obj
 0002:0000f568       $unwind$?DeblockChromaEq4H_c@@YAXPEAE0HHH@Z 0000000180071568     deblocking_common.obj
 0002:0000f578       $unwind$?DeblockChromaLt4V2_c@@YAXPEAEHHHPEAC@Z 0000000180071578     deblocking_common.obj
 0002:0000f588       $unwind$?DeblockChromaEq4V2_c@@YAXPEAEHHH@Z 0000000180071588     deblocking_common.obj
 0002:0000f598       $unwind$?DeblockChromaLt4H2_c@@YAXPEAEHHHPEAC@Z 0000000180071598     deblocking_common.obj
 0002:0000f5a8       $unwind$?DeblockChromaEq4H2_c@@YAXPEAEHHH@Z 00000001800715a8     deblocking_common.obj
 0002:0000f5b8       $unwind$?WelsNonZeroCount_c@@YAXPEAC@Z 00000001800715b8     deblocking_common.obj
 0002:0000f5c8       $unwind$?WelsClip1@@YAEH@Z 00000001800715c8     deblocking_common.obj
 0002:0000f5d8       $unwind$?DeblockLumaLt4_c@@YAXPEAEHHHHPEAC@Z 00000001800715d8     deblocking_common.obj
 0002:0000f5e8       $unwind$?DeblockLumaEq4_c@@YAXPEAEHHHH@Z 00000001800715e8     deblocking_common.obj
 0002:0000f5f8       $unwind$?DeblockChromaLt4_c@@YAXPEAE0HHHHPEAC@Z 00000001800715f8     deblocking_common.obj
 0002:0000f608       $unwind$?DeblockChromaEq4_c@@YAXPEAE0HHHH@Z 0000000180071608     deblocking_common.obj
 0002:0000f618       $unwind$?DeblockChromaLt42_c@@YAXPEAEHHHHPEAC@Z 0000000180071618     deblocking_common.obj
 0002:0000f628       $unwind$?DeblockChromaEq42_c@@YAXPEAEHHHH@Z 0000000180071628     deblocking_common.obj
 0002:0000f638       $unwind$ExpandReferencingPicture 0000000180071638     expand_pic.obj
 0002:0000f648       $unwind$InitExpandPictureFunc 0000000180071648     expand_pic.obj
 0002:0000f658       $unwind$?ExpandPictureLuma_c@@YAXPEAEHHH@Z 0000000180071658     expand_pic.obj
 0002:0000f668       $unwind$?ExpandPictureChroma_c@@YAXPEAEHHH@Z 0000000180071668     expand_pic.obj
 0002:0000f678       $unwind$?WelsI16x16LumaPredV_c@@YAXPEAE0H@Z 0000000180071678     intra_pred_common.obj
 0002:0000f688       $unwind$?WelsI16x16LumaPredH_c@@YAXPEAE0H@Z 0000000180071688     intra_pred_common.obj
 0002:0000f698       $unwind$?InitMcFunc@WelsCommon@@YAXPEAUTagMcFunc@@I@Z 0000000180071698     mc.obj
 0002:0000f6a8       $unwind$?WelsClip1@@YAEH@Z 00000001800716a8     mc.obj
 0002:0000f6b8       $unwind$?McCopyWidthEq2_c@WelsCommon@@YAXPEBEHPEAEHH@Z 00000001800716b8     mc.obj
 0002:0000f6c8       $unwind$?McCopyWidthEq4_c@WelsCommon@@YAXPEBEHPEAEHH@Z 00000001800716c8     mc.obj
 0002:0000f6d8       $unwind$?McCopyWidthEq8_c@WelsCommon@@YAXPEBEHPEAEHH@Z 00000001800716d8     mc.obj
 0002:0000f6e8       $unwind$?McCopyWidthEq16_c@WelsCommon@@YAXPEBEHPEAEHH@Z 00000001800716e8     mc.obj
 0002:0000f6f8       $unwind$?HorFilterInput16bit_c@WelsCommon@@YAHPEBF@Z 00000001800716f8     mc.obj
 0002:0000f708       $unwind$?FilterInput8bitWithStride_c@WelsCommon@@YAHPEBEH@Z 0000000180071708     mc.obj
 0002:0000f718       $unwind$?PixelAvg_c@WelsCommon@@YAXPEAEHPEBEH1HHH@Z 0000000180071718     mc.obj
 0002:0000f728       $unwind$?McCopy_c@WelsCommon@@YAXPEBEHPEAEHHH@Z 0000000180071728     mc.obj
 0002:0000f738       $unwind$?McHorVer20_c@WelsCommon@@YAXPEBEHPEAEHHH@Z 0000000180071738     mc.obj
 0002:0000f748       $unwind$?McHorVer02_c@WelsCommon@@YAXPEBEHPEAEHHH@Z 0000000180071748     mc.obj
 0002:0000f758       $unwind$?McHorVer22_c@WelsCommon@@YAXPEBEHPEAEHHH@Z 0000000180071758     mc.obj
 0002:0000f770       $unwind$?McHorVer01_c@WelsCommon@@YAXPEBEHPEAEHHH@Z 0000000180071770     mc.obj
 0002:0000f788       $unwind$?McHorVer03_c@WelsCommon@@YAXPEBEHPEAEHHH@Z 0000000180071788     mc.obj
 0002:0000f7a0       $unwind$?McHorVer10_c@WelsCommon@@YAXPEBEHPEAEHHH@Z 00000001800717a0     mc.obj
 0002:0000f7b8       $unwind$?McHorVer11_c@WelsCommon@@YAXPEBEHPEAEHHH@Z 00000001800717b8     mc.obj
 0002:0000f7d0       $unwind$?McHorVer12_c@WelsCommon@@YAXPEBEHPEAEHHH@Z 00000001800717d0     mc.obj
 0002:0000f7e8       $unwind$?McHorVer13_c@WelsCommon@@YAXPEBEHPEAEHHH@Z 00000001800717e8     mc.obj
 0002:0000f800       $unwind$?McHorVer21_c@WelsCommon@@YAXPEBEHPEAEHHH@Z 0000000180071800     mc.obj
 0002:0000f818       $unwind$?McHorVer23_c@WelsCommon@@YAXPEBEHPEAEHHH@Z 0000000180071818     mc.obj
 0002:0000f830       $unwind$?McHorVer30_c@WelsCommon@@YAXPEBEHPEAEHHH@Z 0000000180071830     mc.obj
 0002:0000f848       $unwind$?McHorVer31_c@WelsCommon@@YAXPEBEHPEAEHHH@Z 0000000180071848     mc.obj
 0002:0000f860       $unwind$?McHorVer32_c@WelsCommon@@YAXPEBEHPEAEHHH@Z 0000000180071860     mc.obj
 0002:0000f878       $unwind$?McHorVer33_c@WelsCommon@@YAXPEBEHPEAEHHH@Z 0000000180071878     mc.obj
 0002:0000f890       $unwind$?McLuma_c@WelsCommon@@YAXPEBEHPEAEHFFHH@Z 0000000180071890     mc.obj
 0002:0000f8a0       $unwind$?McChromaWithFragMv_c@WelsCommon@@YAXPEBEHPEAEHFFHH@Z 00000001800718a0     mc.obj
 0002:0000f8b0       $unwind$?McChroma_c@WelsCommon@@YAXPEBEHPEAEHFFHH@Z 00000001800718b0     mc.obj
 0002:0000f8c0       $unwind$??0CMemoryAlign@WelsCommon@@QEAA@I@Z 00000001800718c0     memory_align.obj
 0002:0000f8d0       $unwind$??1CMemoryAlign@WelsCommon@@UEAA@XZ 00000001800718d0     memory_align.obj
 0002:0000f8e8       $cppxdata$??1CMemoryAlign@WelsCommon@@UEAA@XZ 00000001800718e8     memory_align.obj
 0002:0000f8ed       $ip2state$??1CMemoryAlign@WelsCommon@@UEAA@XZ 00000001800718ed     memory_align.obj
 0002:0000f8f0       $unwind$?WelsMallocz@CMemoryAlign@WelsCommon@@QEAAPEAXIPEBD@Z 00000001800718f0     memory_align.obj
 0002:0000f900       $unwind$?WelsMalloc@CMemoryAlign@WelsCommon@@QEAAPEAXIPEBD@Z 0000000180071900     memory_align.obj
 0002:0000f910       $unwind$?WelsFree@CMemoryAlign@WelsCommon@@QEAAXPEAXPEBD@Z 0000000180071910     memory_align.obj
 0002:0000f920       $unwind$?WelsGetCacheLineSize@CMemoryAlign@WelsCommon@@QEBA?BIXZ 0000000180071920     memory_align.obj
 0002:0000f930       $unwind$?WelsGetMemoryUsage@CMemoryAlign@WelsCommon@@QEBA?BIXZ 0000000180071930     memory_align.obj
 0002:0000f940       $unwind$??_GCMemoryAlign@WelsCommon@@UEAAPEAXI@Z 0000000180071940     memory_align.obj
 0002:0000f950       $unwind$?WelsMallocz@WelsCommon@@YAPEAXIPEBD@Z 0000000180071950     memory_align.obj
 0002:0000f960       $unwind$?WelsFree@WelsCommon@@YAXPEAXPEBD@Z 0000000180071960     memory_align.obj
 0002:0000f970       $unwind$?WelsMalloc@WelsCommon@@YAPEAXIPEBDI@Z 0000000180071970     memory_align.obj
 0002:0000f980       $unwind$?WelsSampleSad16x16_c@@YAHPEAEH0H@Z 0000000180071980     sad_common.obj
 0002:0000f990       $unwind$?WelsSampleSad16x8_c@@YAHPEAEH0H@Z 0000000180071990     sad_common.obj
 0002:0000f9a0       $unwind$?WelsSampleSad8x16_c@@YAHPEAEH0H@Z 00000001800719a0     sad_common.obj
 0002:0000f9b0       $unwind$?WelsSampleSad8x8_c@@YAHPEAEH0H@Z 00000001800719b0     sad_common.obj
 0002:0000f9c0       $unwind$?WelsSampleSad8x4_c@@YAHPEAEH0H@Z 00000001800719c0     sad_common.obj
 0002:0000f9d0       $unwind$?WelsSampleSad4x8_c@@YAHPEAEH0H@Z 00000001800719d0     sad_common.obj
 0002:0000f9e0       $unwind$?WelsSampleSad4x4_c@@YAHPEAEH0H@Z 00000001800719e0     sad_common.obj
 0002:0000f9f0       $unwind$?WelsSampleSadFour16x16_c@@YAXPEAEH0HPEAH@Z 00000001800719f0     sad_common.obj
 0002:0000fa00       $unwind$?WelsSampleSadFour16x8_c@@YAXPEAEH0HPEAH@Z 0000000180071a00     sad_common.obj
 0002:0000fa10       $unwind$?WelsSampleSadFour8x16_c@@YAXPEAEH0HPEAH@Z 0000000180071a10     sad_common.obj
 0002:0000fa20       $unwind$?WelsSampleSadFour8x8_c@@YAXPEAEH0HPEAH@Z 0000000180071a20     sad_common.obj
 0002:0000fa30       $unwind$?WelsSampleSadFour4x4_c@@YAXPEAEH0HPEAH@Z 0000000180071a30     sad_common.obj
 0002:0000fa40       $unwind$?WelsSampleSadFour8x4_c@@YAXPEAEH0HPEAH@Z 0000000180071a40     sad_common.obj
 0002:0000fa50       $unwind$?WelsSampleSadFour4x8_c@@YAXPEAEH0HPEAH@Z 0000000180071a50     sad_common.obj
 0002:0000fa60       $unwind$?WelsLog@@YAXPEAUTagLogContext@@HPEBDZZ 0000000180071a60     utils.obj
 0002:0000fa78       $unwind$?WelsCalcPsnr@@YAMPEBXH0HHH@Z 0000000180071a78     utils.obj
 0002:0000fa88       $unwind$_vfprintf_l        0000000180071a88     welsCodecTrace.obj
 0002:0000fa98       $unwind$fprintf            0000000180071a98     welsCodecTrace.obj
 0002:0000fab0       $unwind$??0welsCodecTrace@@QEAA@XZ 0000000180071ab0     welsCodecTrace.obj
 0002:0000fac0       $unwind$??1welsCodecTrace@@QEAA@XZ 0000000180071ac0     welsCodecTrace.obj
 0002:0000fad8       $cppxdata$??1welsCodecTrace@@QEAA@XZ 0000000180071ad8     welsCodecTrace.obj
 0002:0000fadd       $ip2state$??1welsCodecTrace@@QEAA@XZ 0000000180071add     welsCodecTrace.obj
 0002:0000fae0       $unwind$?SetCodecInstance@welsCodecTrace@@QEAAXPEAX@Z 0000000180071ae0     welsCodecTrace.obj
 0002:0000faf0       $unwind$?SetTraceLevel@welsCodecTrace@@QEAAXH@Z 0000000180071af0     welsCodecTrace.obj
 0002:0000fb00       $unwind$?SetTraceCallback@welsCodecTrace@@QEAAXP6AXPEAXHPEBD@Z@Z 0000000180071b00     welsCodecTrace.obj
 0002:0000fb10       $unwind$?SetTraceCallbackContext@welsCodecTrace@@QEAAXPEAX@Z 0000000180071b10     welsCodecTrace.obj
 0002:0000fb20       $unwind$?StaticCodecTrace@welsCodecTrace@@CAXPEAXHPEBDPEAD@Z 0000000180071b20     welsCodecTrace.obj
 0002:0000fb30       $unwind$?CodecTrace@welsCodecTrace@@AEAAXHPEBDPEAD@Z 0000000180071b30     welsCodecTrace.obj
 0002:0000fb48       $unwind$?welsStderrTrace@@YAXPEAXHPEBD@Z 0000000180071b48     welsCodecTrace.obj
 0002:0000fb58       $unwind$WelsMutexInit      0000000180071b58     WelsThreadLib.obj
 0002:0000fb68       $unwind$WelsMutexLock      0000000180071b68     WelsThreadLib.obj
 0002:0000fb78       $unwind$WelsMutexUnlock    0000000180071b78     WelsThreadLib.obj
 0002:0000fb88       $unwind$WelsMutexDestroy   0000000180071b88     WelsThreadLib.obj
 0002:0000fb98       $unwind$WelsEventOpen      0000000180071b98     WelsThreadLib.obj
 0002:0000fba8       $unwind$WelsEventClose     0000000180071ba8     WelsThreadLib.obj
 0002:0000fbb8       $unwind$WelsEventSignal    0000000180071bb8     WelsThreadLib.obj
 0002:0000fbc8       $unwind$WelsEventWait      0000000180071bc8     WelsThreadLib.obj
 0002:0000fbd8       $unwind$WelsEventWaitWithTimeOut 0000000180071bd8     WelsThreadLib.obj
 0002:0000fbe8       $unwind$WelsMultipleEventsWaitSingleBlocking 0000000180071be8     WelsThreadLib.obj
 0002:0000fbf8       $unwind$WelsMultipleEventsWaitAllBlocking 0000000180071bf8     WelsThreadLib.obj
 0002:0000fc08       $unwind$WelsThreadCreate   0000000180071c08     WelsThreadLib.obj
 0002:0000fc18       $unwind$WelsThreadSetName  0000000180071c18     WelsThreadLib.obj
 0002:0000fc28       $unwind$WelsThreadJoin     0000000180071c28     WelsThreadLib.obj
 0002:0000fc38       $unwind$WelsThreadSelf     0000000180071c38     WelsThreadLib.obj
 0002:0000fc48       $unwind$WelsQueryLogicalProcessInfo 0000000180071c48     WelsThreadLib.obj
 0002:0000fc60       $unwind$?InitBits@WelsCommon@@YAHPEAUTagBitStringAux@1@PEBEH@Z 0000000180071c60     au_parser.obj
 0002:0000fc70       $unwind$?BsWriteBits@WelsCommon@@YAHPEAUTagBitStringAux@1@HI@Z 0000000180071c70     au_parser.obj
 0002:0000fc80       $unwind$?BsWriteOneBit@WelsCommon@@YAHPEAUTagBitStringAux@1@I@Z 0000000180071c80     au_parser.obj
 0002:0000fc90       $unwind$?BsFlush@WelsCommon@@YAHPEAUTagBitStringAux@1@@Z 0000000180071c90     au_parser.obj
 0002:0000fca0       $unwind$?BsWriteUE@WelsCommon@@YAHPEAUTagBitStringAux@1@I@Z 0000000180071ca0     au_parser.obj
 0002:0000fcb0       $unwind$?BsWriteSE@WelsCommon@@YAHPEAUTagBitStringAux@1@H@Z 0000000180071cb0     au_parser.obj
 0002:0000fcc0       $unwind$?BsRbspTrailingBits@WelsCommon@@YAHPEAUTagBitStringAux@1@@Z 0000000180071cc0     au_parser.obj
 0002:0000fcd0       $unwind$?BsGetBits@WelsDec@@YAHPEAUTagBitStringAux@WelsCommon@@HPEAI@Z 0000000180071cd0     au_parser.obj
 0002:0000fce0       $unwind$?BsGetOneBit@WelsDec@@YAIPEAUTagBitStringAux@WelsCommon@@PEAI@Z 0000000180071ce0     au_parser.obj
 0002:0000fcf0       $unwind$?GetLeadingZeroBits@WelsDec@@YAHI@Z 0000000180071cf0     au_parser.obj
 0002:0000fd00       $unwind$?BsGetUe@WelsDec@@YAIPEAUTagBitStringAux@WelsCommon@@PEAI@Z 0000000180071d00     au_parser.obj
 0002:0000fd10       $unwind$?BsGetSe@WelsDec@@YAHPEAUTagBitStringAux@WelsCommon@@PEAH@Z 0000000180071d10     au_parser.obj
 0002:0000fd28       $unwind$?BsGetTrailingBits@WelsDec@@YAHPEAE@Z 0000000180071d28     au_parser.obj
 0002:0000fd38       $unwind$?CheckMoreRBSPData@WelsDec@@YA_NPEAUTagBitStringAux@WelsCommon@@@Z 0000000180071d38     au_parser.obj
 0002:0000fd48       $unwind$?ResetActiveSPSForEachLayer@WelsDec@@YAXPEAUTagWelsDecoderContext@1@@Z 0000000180071d48     au_parser.obj
 0002:0000fd58       $unwind$?DetectStartCodePrefix@WelsDec@@YAPEAEPEBEPEAHH@Z 0000000180071d58     au_parser.obj
 0002:0000fd68       $unwind$?ParseNalHeader@WelsDec@@YAPEAEPEAUTagWelsDecoderContext@1@PEAUTagNalUnitHeader@WelsCommon@@PEAEH2HPEAH@Z 0000000180071d68     au_parser.obj
 0002:0000fd78       $unwind$?ParseNonVclNal@WelsDec@@YAHPEAUTagWelsDecoderContext@1@PEAEH1H@Z 0000000180071d78     au_parser.obj
 0002:0000fd90       $unwind$?ParseRefBasePicMarking@WelsDec@@YAHPEAUTagBitStringAux@WelsCommon@@PEAUTagRefBasePicMarkingSyn@1@@Z 0000000180071d90     au_parser.obj
 0002:0000fda8       $unwind$?ParsePrefixNalUnit@WelsDec@@YAHPEAUTagWelsDecoderContext@1@PEAUTagBitStringAux@WelsCommon@@@Z 0000000180071da8     au_parser.obj
 0002:0000fdc0       $unwind$?CheckAccessUnitBoundary@WelsDec@@YA_NPEAUTagWelsDecoderContext@1@QEAUTagNalUnit@1@1QEAUTagSps@1@@Z 0000000180071dc0     au_parser.obj
 0002:0000fdd0       $unwind$?CheckAccessUnitBoundaryExt@WelsDec@@YA_NPEAUTagNalUnitHeaderExt@WelsCommon@@0PEAUTagSliceHeaders@1@1@Z 0000000180071dd0     au_parser.obj
 0002:0000fde0       $unwind$?CheckNextAuNewSeq@WelsDec@@YA_NPEAUTagWelsDecoderContext@1@QEAUTagNalUnit@1@QEAUTagSps@1@@Z 0000000180071de0     au_parser.obj
 0002:0000fdf0       $unwind$?ParseSps@WelsDec@@YAHPEAUTagWelsDecoderContext@1@PEAUTagBitStringAux@WelsCommon@@PEAH2PEAEH@Z 0000000180071df0     au_parser.obj
 0002:0000fe08       $unwind$?ParsePps@WelsDec@@YAHPEAUTagWelsDecoderContext@1@PEAUTagPps@1@PEAUTagBitStringAux@WelsCommon@@PEAEH@Z 0000000180071e08     au_parser.obj
 0002:0000fe20       $unwind$?SetScalingListValue@WelsDec@@YAHPEAEHPEA_NPEAUTagBitStringAux@WelsCommon@@@Z 0000000180071e20     au_parser.obj
 0002:0000fe38       $unwind$?ParseScalingList@WelsDec@@YAHPEAUTagSps@1@PEAUTagBitStringAux@WelsCommon@@_NPEA_NPEAY0BA@EPEAY0EA@E@Z 0000000180071e38     au_parser.obj
 0002:0000fe50       $unwind$?ParseSei@WelsDec@@YAHPEAXPEAUTagBitStringAux@WelsCommon@@@Z 0000000180071e50     au_parser.obj
 0002:0000fe60       $unwind$?ResetFmoList@WelsDec@@YAHPEAUTagWelsDecoderContext@1@@Z 0000000180071e60     au_parser.obj
 0002:0000fe70       $unwind$?DecodeSpsSvcExt@WelsDec@@YAHPEAUTagWelsDecoderContext@1@PEAUTagSubsetSps@1@PEAUTagBitStringAux@WelsCommon@@@Z 0000000180071e70     au_parser.obj
 0002:0000fe88       $unwind$?GetLevelLimits@WelsDec@@YAPEBUTagLevelLimits@WelsCommon@@H_N@Z 0000000180071e88     au_parser.obj
 0002:0000fe98       $unwind$?CheckSpsActive@WelsDec@@YA_NPEAUTagWelsDecoderContext@1@PEAUTagSps@1@_N@Z 0000000180071e98     au_parser.obj
 0002:0000fea8       $unwind$?DecInitBits@WelsDec@@YAHPEAUTagBitStringAux@WelsCommon@@PEBEH@Z 0000000180071ea8     bit_stream.obj
 0002:0000feb8       $unwind$?InitReadBits@WelsDec@@YAHPEAUTagBitStringAux@WelsCommon@@_J@Z 0000000180071eb8     bit_stream.obj
 0002:0000fec8       $unwind$?RBSP2EBSP@WelsDec@@YAXPEAE0H@Z 0000000180071ec8     bit_stream.obj
 0002:0000fed8       $unwind$?GetValue4Bytes@WelsDec@@YAIPEAE@Z 0000000180071ed8     bit_stream.obj
 0002:0000fee8       $unwind$?WelsCabacGlobalInit@WelsDec@@YAXPEAUTagWelsDecoderContext@1@@Z 0000000180071ee8     cabac_decoder.obj
 0002:0000fef8       $unwind$?WelsCabacContextInit@WelsDec@@YAXPEAUTagWelsDecoderContext@1@EHH@Z 0000000180071ef8     cabac_decoder.obj
 0002:0000ff08       $unwind$?InitCabacDecEngineFromBS@WelsDec@@YAHPEAUSWelsCabacDecEngine@1@PEAUTagBitStringAux@WelsCommon@@@Z 0000000180071f08     cabac_decoder.obj
 0002:0000ff18       $unwind$?RestoreCabacDecEngineToBS@WelsDec@@YAXPEAUSWelsCabacDecEngine@1@PEAUTagBitStringAux@WelsCommon@@@Z 0000000180071f18     cabac_decoder.obj
 0002:0000ff28       $unwind$?Read32BitsCabac@WelsDec@@YAHPEAUSWelsCabacDecEngine@1@AEAIAEAH@Z 0000000180071f28     cabac_decoder.obj
 0002:0000ff38       $unwind$?DecodeBinCabac@WelsDec@@YAHPEAUSWelsCabacDecEngine@1@PEAUSWels_Cabac_Element@1@AEAI@Z 0000000180071f38     cabac_decoder.obj
 0002:0000ff50       $unwind$?DecodeBypassCabac@WelsDec@@YAHPEAUSWelsCabacDecEngine@1@AEAI@Z 0000000180071f50     cabac_decoder.obj
 0002:0000ff68       $unwind$?DecodeTerminateCabac@WelsDec@@YAHPEAUSWelsCabacDecEngine@1@AEAI@Z 0000000180071f68     cabac_decoder.obj
 0002:0000ff80       $unwind$?DecodeUnaryBinCabac@WelsDec@@YAHPEAUSWelsCabacDecEngine@1@PEAUSWels_Cabac_Element@1@HAEAI@Z 0000000180071f80     cabac_decoder.obj
 0002:0000ff98       $unwind$?DecodeExpBypassCabac@WelsDec@@YAHPEAUSWelsCabacDecEngine@1@HAEAI@Z 0000000180071f98     cabac_decoder.obj
 0002:0000ffb0       $unwind$?DecodeUEGLevelCabac@WelsDec@@YAIPEAUSWelsCabacDecEngine@1@PEAUSWels_Cabac_Element@1@AEAI@Z 0000000180071fb0     cabac_decoder.obj
 0002:0000ffc8       $unwind$?DecodeUEGMvCabac@WelsDec@@YAHPEAUSWelsCabacDecEngine@1@PEAUSWels_Cabac_Element@1@IAEAI@Z 0000000180071fc8     cabac_decoder.obj
 0002:0000ffe0       $unwind$?DeblockingInit@WelsDec@@YAXPEAUTagDeblockingFunc@1@H@Z 0000000180071fe0     deblocking.obj
 0002:0000fff0       $unwind$?WelsDeblockingFilterSlice@WelsDec@@YAXPEAUTagWelsDecoderContext@1@P6AXPEAUTagDqLayer@1@PEAUtagDeblockingFilter@1@H@Z@Z 0000000180071ff0     deblocking.obj
 0002:00010008       $unwind$?DeblockingBsMarginalMBAvcbase@WelsDec@@YAIPEAUTagDqLayer@1@HHH@Z 0000000180072008     deblocking.obj
 0002:00010020       $unwind$?DeblockingAvailableNoInterlayer@WelsDec@@YAHPEAUTagDqLayer@1@H@Z 0000000180072020     deblocking.obj
 0002:00010030       $unwind$?DeblockingIntraMb@WelsDec@@YAXPEAUTagDqLayer@1@PEAUtagDeblockingFilter@1@H@Z 0000000180072030     deblocking.obj
 0002:00010040       $unwind$?DeblockingInterMb@WelsDec@@YAXPEAUTagDqLayer@1@PEAUtagDeblockingFilter@1@QEAY133EH@Z 0000000180072040     deblocking.obj
 0002:00010050       $unwind$?WelsDeblockingMb@WelsDec@@YAXPEAUTagDqLayer@1@PEAUtagDeblockingFilter@1@H@Z 0000000180072050     deblocking.obj
 0002:00010068       $unwind$?DeblockingBSInsideMBAvsbase@WelsDec@@YAXPEACQEAY133EH@Z 0000000180072068     deblocking.obj
 0002:00010078       $unwind$?DeblockingBSInsideMBAvsbase8x8@WelsDec@@YAXPEACQEAY133EH@Z 0000000180072078     deblocking.obj
 0002:00010088       $unwind$?DeblockingBSInsideMBNormal@WelsDec@@YAXPEAUTagDqLayer@1@QEAY133EPEACH@Z 0000000180072088     deblocking.obj
 0002:000100a0       $unwind$?FilteringEdgeLumaH@WelsDec@@YAXPEAUtagDeblockingFilter@1@PEAEH1@Z 00000001800720a0     deblocking.obj
 0002:000100b8       $unwind$?FilteringEdgeLumaV@WelsDec@@YAXPEAUtagDeblockingFilter@1@PEAEH1@Z 00000001800720b8     deblocking.obj
 0002:000100d0       $unwind$?FilteringEdgeLumaIntraH@WelsDec@@YAXPEAUtagDeblockingFilter@1@PEAEH1@Z 00000001800720d0     deblocking.obj
 0002:000100e0       $unwind$?FilteringEdgeLumaIntraV@WelsDec@@YAXPEAUtagDeblockingFilter@1@PEAEH1@Z 00000001800720e0     deblocking.obj
 0002:000100f0       $unwind$?FilteringEdgeChromaH@WelsDec@@YAXPEAUtagDeblockingFilter@1@PEAE1H1@Z 00000001800720f0     deblocking.obj
 0002:00010108       $unwind$?FilteringEdgeChromaV@WelsDec@@YAXPEAUtagDeblockingFilter@1@PEAE1H1@Z 0000000180072108     deblocking.obj
 0002:00010120       $unwind$?FilteringEdgeChromaIntraH@WelsDec@@YAXPEAUtagDeblockingFilter@1@PEAE1H1@Z 0000000180072120     deblocking.obj
 0002:00010130       $unwind$?FilteringEdgeChromaIntraV@WelsDec@@YAXPEAUtagDeblockingFilter@1@PEAE1H1@Z 0000000180072130     deblocking.obj
 0002:00010140       $unwind$?FilteringEdgeLumaHV@WelsDec@@YAXPEAUTagDqLayer@1@PEAUtagDeblockingFilter@1@H@Z 0000000180072140     deblocking.obj
 0002:00010158       $unwind$?FilteringEdgeChromaHV@WelsDec@@YAXPEAUTagDqLayer@1@PEAUtagDeblockingFilter@1@H@Z 0000000180072158     deblocking.obj
 0002:00010170       $unwind$?InitVlcTable@WelsDec@@YAXPEAUTagVlcTable@1@@Z 0000000180072170     decoder.obj
 0002:00010180       $unwind$DecoderConfigParam 0000000180072180     decoder.obj
 0002:00010190       $unwind$WelsInitDecoder    0000000180072190     decoder.obj
 0002:000101a0       $unwind$WelsEndDecoder     00000001800721a0     decoder.obj
 0002:000101b0       $unwind$WelsDecodeBs       00000001800721b0     decoder.obj
 0002:000101c8       $unwind$WelsRequestMem     00000001800721c8     decoder.obj
 0002:000101d8       $unwind$WelsFreeMem        00000001800721d8     decoder.obj
 0002:000101e8       $unwind$DecoderSetCsp      00000001800721e8     decoder.obj
 0002:000101f8       $unwind$SyncPictureResolutionExt 00000001800721f8     decoder.obj
 0002:00010208       $unwind$AssignFuncPointerForRec 0000000180072208     decoder.obj
 0002:00010218       $unwind$GetVclNalTemporalId 0000000180072218     decoder.obj
 0002:00010228       $unwind$ResetDecStatNums   0000000180072228     decoder.obj
 0002:00010238       $unwind$UpdateDecStatFreezingInfo 0000000180072238     decoder.obj
 0002:00010248       $unwind$UpdateDecStatNoFreezingInfo 0000000180072248     decoder.obj
 0002:00010258       $unwind$UpdateDecStat      0000000180072258     decoder.obj
 0002:00010268       $unwind$DestroyPicBuff     0000000180072268     decoder.obj
 0002:00010278       $unwind$?CreatePicBuff@WelsDec@@YAHPEAUTagWelsDecoderContext@1@PEAPEAUTagPicBuff@1@HHH@Z 0000000180072278     decoder.obj
 0002:00010290       $unwind$?IncreasePicBuff@WelsDec@@YAHPEAUTagWelsDecoderContext@1@PEAPEAUTagPicBuff@1@HHHH@Z 0000000180072290     decoder.obj
 0002:000102a8       $unwind$?DecreasePicBuff@WelsDec@@YAHPEAUTagWelsDecoderContext@1@PEAPEAUTagPicBuff@1@HHHH@Z 00000001800722a8     decoder.obj
 0002:000102c0       $unwind$?WelsDecoderDefaults@WelsDec@@YAXPEAUTagWelsDecoderContext@1@PEAUTagLogContext@@PEAVCMemoryAlign@WelsCommon@@@Z 00000001800722c0     decoder.obj
 0002:000102d8       $unwind$?GetTargetRefListSize@WelsDec@@YAHPEAUTagWelsDecoderContext@1@@Z 00000001800722d8     decoder.obj
 0002:000102e8       $unwind$?WelsOpenDecoder@WelsDec@@YAHPEAUTagWelsDecoderContext@1@@Z 00000001800722e8     decoder.obj
 0002:000102f8       $unwind$?WelsCloseDecoder@WelsDec@@YAXPEAUTagWelsDecoderContext@1@@Z 00000001800722f8     decoder.obj
 0002:00010308       $unwind$?BsGetBits@WelsDec@@YAHPEAUTagBitStringAux@WelsCommon@@HPEAI@Z 0000000180072308     decoder_core.obj
 0002:00010318       $unwind$?BsGetOneBit@WelsDec@@YAIPEAUTagBitStringAux@WelsCommon@@PEAI@Z 0000000180072318     decoder_core.obj
 0002:00010328       $unwind$?GetLeadingZeroBits@WelsDec@@YAHI@Z 0000000180072328     decoder_core.obj
 0002:00010338       $unwind$?BsGetUe@WelsDec@@YAIPEAUTagBitStringAux@WelsCommon@@PEAI@Z 0000000180072338     decoder_core.obj
 0002:00010348       $unwind$?BsGetSe@WelsDec@@YAHPEAUTagBitStringAux@WelsCommon@@PEAH@Z 0000000180072348     decoder_core.obj
 0002:00010360       $unwind$?ResetActiveSPSForEachLayer@WelsDec@@YAXPEAUTagWelsDecoderContext@1@@Z 0000000180072360     decoder_core.obj
 0002:00010370       $unwind$?InitBsBuffer@WelsDec@@YAHPEAUTagWelsDecoderContext@1@@Z 0000000180072370     decoder_core.obj
 0002:00010380       $unwind$?ExpandBsBuffer@WelsDec@@YAHPEAUTagWelsDecoderContext@1@H@Z 0000000180072380     decoder_core.obj
 0002:00010390       $unwind$?CheckBsBuffer@WelsDec@@YAHPEAUTagWelsDecoderContext@1@H@Z 0000000180072390     decoder_core.obj
 0002:000103a0       $unwind$?WelsInitMemory@WelsDec@@YAHPEAUTagWelsDecoderContext@1@@Z 00000001800723a0     decoder_core.obj
 0002:000103b0       $unwind$?WelsFreeMemory@WelsDec@@YAXPEAUTagWelsDecoderContext@1@@Z 00000001800723b0     decoder_core.obj
 0002:000103c0       $unwind$?InitialDqLayersContext@WelsDec@@YAHPEAUTagWelsDecoderContext@1@HH@Z 00000001800723c0     decoder_core.obj
 0002:000103d0       $unwind$?UninitialDqLayersContext@WelsDec@@YAXPEAUTagWelsDecoderContext@1@@Z 00000001800723d0     decoder_core.obj
 0002:000103e0       $unwind$?DecodeNalHeaderExt@WelsDec@@YAXPEAUTagNalUnit@1@PEAE@Z 00000001800723e0     decoder_core.obj
 0002:000103f0       $unwind$?ParseSliceHeaderSyntaxs@WelsDec@@YAHPEAUTagWelsDecoderContext@1@PEAUTagBitStringAux@WelsCommon@@_N@Z 00000001800723f0     decoder_core.obj
 0002:00010408       $unwind$?PrefetchNalHeaderExtSyntax@WelsDec@@YA_NPEAUTagWelsDecoderContext@1@QEAUTagNalUnit@1@1@Z 0000000180072408     decoder_core.obj
 0002:00010418       $unwind$?ConstructAccessUnit@WelsDec@@YAHPEAUTagWelsDecoderContext@1@PEAPEAEPEAUTagBufferInfo@@@Z 0000000180072418     decoder_core.obj
 0002:00010428       $unwind$?DecodeCurrentAccessUnit@WelsDec@@YAHPEAUTagWelsDecoderContext@1@PEAPEAEPEAUTagBufferInfo@@@Z 0000000180072428     decoder_core.obj
 0002:00010440       $unwind$?CheckAndFinishLastPic@WelsDec@@YA_NPEAUTagWelsDecoderContext@1@PEAPEAEPEAUTagBufferInfo@@@Z 0000000180072440     decoder_core.obj
 0002:00010450       $unwind$?WelsDqLayerDecodeStart@WelsDec@@YAXPEAUTagWelsDecoderContext@1@PEAUTagNalUnit@1@PEAUTagSps@1@PEAUTagPps@1@@Z 0000000180072450     decoder_core.obj
 0002:00010460       $unwind$?WelsDecodeAccessUnitStart@WelsDec@@YAHPEAUTagWelsDecoderContext@1@@Z 0000000180072460     decoder_core.obj
 0002:00010470       $unwind$?WelsDecodeAccessUnitEnd@WelsDec@@YAXPEAUTagWelsDecoderContext@1@@Z 0000000180072470     decoder_core.obj
 0002:00010480       $unwind$?DecodeFinishUpdate@WelsDec@@YAXPEAUTagWelsDecoderContext@1@@Z 0000000180072480     decoder_core.obj
 0002:00010490       $unwind$?ForceResetCurrentAccessUnit@WelsDec@@YAXPEAUTagAccessUnits@1@@Z 0000000180072490     decoder_core.obj
 0002:000104a0       $unwind$?ForceClearCurrentNal@WelsDec@@YAXPEAUTagAccessUnits@1@@Z 00000001800724a0     decoder_core.obj
 0002:000104b0       $unwind$?CheckRefPicturesComplete@WelsDec@@YA_NPEAUTagWelsDecoderContext@1@@Z 00000001800724b0     decoder_core.obj
 0002:000104c0       $unwind$?ForceResetParaSetStatusAndAUList@WelsDec@@YAXPEAUTagWelsDecoderContext@1@@Z 00000001800724c0     decoder_core.obj
 0002:000104d0       $unwind$?DecodeFrameConstruction@WelsDec@@YAHPEAUTagWelsDecoderContext@1@PEAPEAEPEAUTagBufferInfo@@@Z 00000001800724d0     decoder_core.obj
 0002:000104e0       $unwind$?CheckSliceNeedReconstruct@WelsDec@@YA_NEE@Z 00000001800724e0     decoder_core.obj
 0002:000104f0       $unwind$?GetTargetDqId@WelsDec@@YAEEPEAUTagSVCDecodingParam@@@Z 00000001800724f0     decoder_core.obj
 0002:00010500       $unwind$?HandleReferenceLostL0@WelsDec@@YAXPEAUTagWelsDecoderContext@1@PEAUTagNalUnit@1@@Z 0000000180072500     decoder_core.obj
 0002:00010510       $unwind$?HandleReferenceLost@WelsDec@@YAXPEAUTagWelsDecoderContext@1@PEAUTagNalUnit@1@@Z 0000000180072510     decoder_core.obj
 0002:00010520       $unwind$?WelsDecodeConstructSlice@WelsDec@@YAHPEAUTagWelsDecoderContext@1@PEAUTagNalUnit@1@@Z 0000000180072520     decoder_core.obj
 0002:00010530       $unwind$?ParsePredWeightedTable@WelsDec@@YAHPEAUTagBitStringAux@WelsCommon@@PEAUTagSliceHeaders@1@@Z 0000000180072530     decoder_core.obj
 0002:00010548       $unwind$?ParseRefPicListReordering@WelsDec@@YAHPEAUTagBitStringAux@WelsCommon@@PEAUTagSliceHeaders@1@@Z 0000000180072548     decoder_core.obj
 0002:00010560       $unwind$?ParseDecRefPicMarking@WelsDec@@YAHPEAUTagWelsDecoderContext@1@PEAUTagBitStringAux@WelsCommon@@PEAUTagSliceHeaders@1@PEAUTagSps@1@_N@Z 0000000180072560     decoder_core.obj
 0002:00010578       $unwind$?FillDefaultSliceHeaderExt@WelsDec@@YA_NPEAUTagSliceHeaderExt@1@PEAUTagNalUnitHeaderExt@WelsCommon@@@Z 0000000180072578     decoder_core.obj
 0002:00010588       $unwind$?UpdateAccessUnit@WelsDec@@YAHPEAUTagWelsDecoderContext@1@@Z 0000000180072588     decoder_core.obj
 0002:00010598       $unwind$?ResetCurrentAccessUnit@WelsDec@@YAXPEAUTagWelsDecoderContext@1@@Z 0000000180072598     decoder_core.obj
 0002:000105a8       $unwind$?CheckAvailNalUnitsListContinuity@WelsDec@@YAXPEAUTagWelsDecoderContext@1@HH@Z 00000001800725a8     decoder_core.obj
 0002:000105b8       $unwind$?RefineIdxNoInterLayerPred@WelsDec@@YAXPEAUTagAccessUnits@1@PEAH@Z 00000001800725b8     decoder_core.obj
 0002:000105c8       $unwind$?CheckPocOfCurValidNalUnits@WelsDec@@YA_NPEAUTagAccessUnits@1@H@Z 00000001800725c8     decoder_core.obj
 0002:000105d8       $unwind$?CheckIntegrityNalUnitsList@WelsDec@@YA_NPEAUTagWelsDecoderContext@1@@Z 00000001800725d8     decoder_core.obj
 0002:000105f0       $unwind$?CheckOnlyOneLayerInAu@WelsDec@@YAXPEAUTagWelsDecoderContext@1@@Z 00000001800725f0     decoder_core.obj
 0002:00010600       $unwind$?CheckNewSeqBeginAndUpdateActiveLayerSps@WelsDec@@YA_NPEAUTagWelsDecoderContext@1@@Z 0000000180072600     decoder_core.obj
 0002:00010618       $unwind$?WriteBackActiveParameters@WelsDec@@YAXPEAUTagWelsDecoderContext@1@@Z 0000000180072618     decoder_core.obj
 0002:00010628       $unwind$?InitDqLayerInfo@WelsDec@@YAXPEAUTagDqLayer@1@PEAUTagLayerInfo@1@PEAUTagNalUnit@1@PEAUTagPicture@1@@Z 0000000180072628     decoder_core.obj
 0002:00010638       $unwind$?InitRefPicList@WelsDec@@YAHPEAUTagWelsDecoderContext@1@EH@Z 0000000180072638     decoder_core.obj
 0002:00010648       $unwind$?InitCurDqLayerData@WelsDec@@YAXPEAUTagWelsDecoderContext@1@PEAUTagDqLayer@1@@Z 0000000180072648     decoder_core.obj
 0002:00010658       $unwind$?WelsClip1@@YAEH@Z 0000000180072658     decode_mb_aux.obj
 0002:00010668       $unwind$?IdctResAddPred_c@WelsDec@@YAXPEAEHPEAF@Z 0000000180072668     decode_mb_aux.obj
 0002:00010678       $unwind$?IdctResAddPred8x8_c@WelsDec@@YAXPEAEHPEAF@Z 0000000180072678     decode_mb_aux.obj
 0002:00010688       $unwind$?GetI4LumaIChromaAddrTable@WelsDec@@YAXPEAHHH@Z 0000000180072688     decode_mb_aux.obj
 0002:00010698       $unwind$?BsGetBits@WelsDec@@YAHPEAUTagBitStringAux@WelsCommon@@HPEAI@Z 0000000180072698     decode_slice.obj
 0002:000106a8       $unwind$?BsGetOneBit@WelsDec@@YAIPEAUTagBitStringAux@WelsCommon@@PEAI@Z 00000001800726a8     decode_slice.obj
 0002:000106b8       $unwind$?GetLeadingZeroBits@WelsDec@@YAHI@Z 00000001800726b8     decode_slice.obj
 0002:000106c8       $unwind$?BsGetUe@WelsDec@@YAIPEAUTagBitStringAux@WelsCommon@@PEAI@Z 00000001800726c8     decode_slice.obj
 0002:000106d8       $unwind$?BsGetSe@WelsDec@@YAHPEAUTagBitStringAux@WelsCommon@@PEAH@Z 00000001800726d8     decode_slice.obj
 0002:000106f0       $unwind$?WelsActualDecodeMbCavlcISlice@WelsDec@@YAHPEAUTagWelsDecoderContext@1@@Z 00000001800726f0     decode_slice.obj
 0002:00010708       $unwind$?WelsDecodeMbCavlcISlice@WelsDec@@YAHPEAUTagWelsDecoderContext@1@PEAUTagNalUnit@1@AEAI@Z 0000000180072708     decode_slice.obj
 0002:00010720       $unwind$?WelsActualDecodeMbCavlcPSlice@WelsDec@@YAHPEAUTagWelsDecoderContext@1@@Z 0000000180072720     decode_slice.obj
 0002:00010738       $unwind$?WelsDecodeMbCavlcPSlice@WelsDec@@YAHPEAUTagWelsDecoderContext@1@PEAUTagNalUnit@1@AEAI@Z 0000000180072738     decode_slice.obj
 0002:00010750       $unwind$?WelsDecodeMbCabacISlice@WelsDec@@YAHPEAUTagWelsDecoderContext@1@PEAUTagNalUnit@1@AEAI@Z 0000000180072750     decode_slice.obj
 0002:00010760       $unwind$?WelsDecodeMbCabacPSlice@WelsDec@@YAHPEAUTagWelsDecoderContext@1@PEAUTagNalUnit@1@AEAI@Z 0000000180072760     decode_slice.obj
 0002:00010778       $unwind$?WelsDecodeMbCabacISliceBaseMode0@WelsDec@@YAHPEAUTagWelsDecoderContext@1@AEAI@Z 0000000180072778     decode_slice.obj
 0002:00010790       $unwind$?WelsDecodeMbCabacPSliceBaseMode0@WelsDec@@YAHPEAUTagWelsDecoderContext@1@PEAUTagNeighborAvail@1@AEAI@Z 0000000180072790     decode_slice.obj
 0002:000107a8       $unwind$?WelsTargetSliceConstruction@WelsDec@@YAHPEAUTagWelsDecoderContext@1@@Z 00000001800727a8     decode_slice.obj
 0002:000107b8       $unwind$?WelsDecodeSlice@WelsDec@@YAHPEAUTagWelsDecoderContext@1@_NPEAUTagNalUnit@1@@Z 00000001800727b8     decode_slice.obj
 0002:000107d0       $unwind$?WelsTargetMbConstruction@WelsDec@@YAHPEAUTagWelsDecoderContext@1@@Z 00000001800727d0     decode_slice.obj
 0002:000107e0       $unwind$?WelsMbIntraPredictionConstruction@WelsDec@@YAHPEAUTagWelsDecoderContext@1@PEAUTagDqLayer@1@_N@Z 00000001800727e0     decode_slice.obj
 0002:000107f0       $unwind$?WelsMbInterSampleConstruction@WelsDec@@YAHPEAUTagWelsDecoderContext@1@PEAUTagDqLayer@1@PEAE22HH@Z 00000001800727f0     decode_slice.obj
 0002:00010800       $unwind$?WelsMbInterConstruction@WelsDec@@YAHPEAUTagWelsDecoderContext@1@PEAUTagDqLayer@1@@Z 0000000180072800     decode_slice.obj
 0002:00010810       $unwind$?WelsLumaDcDequantIdct@WelsDec@@YAXPEAFHPEAUTagWelsDecoderContext@1@@Z 0000000180072810     decode_slice.obj
 0002:00010820       $unwind$?WelsMbInterPrediction@WelsDec@@YAHPEAUTagWelsDecoderContext@1@PEAUTagDqLayer@1@@Z 0000000180072820     decode_slice.obj
 0002:00010830       $unwind$?WelsChromaDcIdct@WelsDec@@YAXPEAF@Z 0000000180072830     decode_slice.obj
 0002:00010840       $unwind$?WelsBlockFuncInit@WelsDec@@YAXPEAUTagBlockFunc@1@H@Z 0000000180072840     decode_slice.obj
 0002:00010850       $unwind$?WelsBlockZero16x16_c@WelsDec@@YAXPEAFH@Z 0000000180072850     decode_slice.obj
 0002:00010860       $unwind$?WelsBlockZero8x8_c@WelsDec@@YAXPEAFH@Z 0000000180072860     decode_slice.obj
 0002:00010870       $unwind$?WelsMapNxNNeighToSampleNormal@WelsDec@@YAXPEAUTagNeighborAvail@1@PEAH@Z 0000000180072870     decode_slice.obj
 0002:00010880       $unwind$?WelsMapNxNNeighToSampleConstrain1@WelsDec@@YAXPEAUTagNeighborAvail@1@PEAH@Z 0000000180072880     decode_slice.obj
 0002:00010890       $unwind$?WelsMap16x16NeighToSampleNormal@WelsDec@@YAXPEAUTagNeighborAvail@1@PEAE@Z 0000000180072890     decode_slice.obj
 0002:000108a0       $unwind$?WelsMap16x16NeighToSampleConstrain1@WelsDec@@YAXPEAUTagNeighborAvail@1@PEAE@Z 00000001800728a0     decode_slice.obj
 0002:000108b0       $unwind$?ParseIntra4x4Mode@WelsDec@@YAHPEAUTagWelsDecoderContext@1@PEAUTagNeighborAvail@1@PEACPEAUTagBitStringAux@WelsCommon@@PEAUTagDqLayer@1@@Z 00000001800728b0     decode_slice.obj
 0002:000108c8       $unwind$?ParseIntra8x8Mode@WelsDec@@YAHPEAUTagWelsDecoderContext@1@PEAUTagNeighborAvail@1@PEACPEAUTagBitStringAux@WelsCommon@@PEAUTagDqLayer@1@@Z 00000001800728c8     decode_slice.obj
 0002:000108e0       $unwind$?ParseIntra16x16Mode@WelsDec@@YAHPEAUTagWelsDecoderContext@1@PEAUTagNeighborAvail@1@PEAUTagBitStringAux@WelsCommon@@PEAUTagDqLayer@1@@Z 00000001800728e0     decode_slice.obj
 0002:000108f8       $unwind$?WelsCalcDeqCoeffScalingList@WelsDec@@YAHPEAUTagWelsDecoderContext@1@@Z 00000001800728f8     decode_slice.obj
 0002:00010908       $unwind$?WelsBlockInit@WelsDec@@YAXPEAFHHHE@Z 0000000180072908     decode_slice.obj
 0002:00010918       $unwind$?InitErrorCon@WelsDec@@YAXPEAUTagWelsDecoderContext@1@@Z 0000000180072918     error_concealment.obj
 0002:00010928       $unwind$?DoErrorConFrameCopy@WelsDec@@YAXPEAUTagWelsDecoderContext@1@@Z 0000000180072928     error_concealment.obj
 0002:00010938       $unwind$?DoErrorConSliceCopy@WelsDec@@YAXPEAUTagWelsDecoderContext@1@@Z 0000000180072938     error_concealment.obj
 0002:00010948       $unwind$?GetAvilInfoFromCorrectMb@WelsDec@@YAXPEAUTagWelsDecoderContext@1@@Z 0000000180072948     error_concealment.obj
 0002:00010960       $unwind$?DoErrorConSliceMVCopy@WelsDec@@YAXPEAUTagWelsDecoderContext@1@@Z 0000000180072960     error_concealment.obj
 0002:00010978       $unwind$?MarkECFrameAsRef@WelsDec@@YAHPEAUTagWelsDecoderContext@1@@Z 0000000180072978     error_concealment.obj
 0002:00010988       $unwind$?NeedErrorCon@WelsDec@@YA_NPEAUTagWelsDecoderContext@1@@Z 0000000180072988     error_concealment.obj
 0002:00010998       $unwind$?ImplementErrorCon@WelsDec@@YAXPEAUTagWelsDecoderContext@1@@Z 0000000180072998     error_concealment.obj
 0002:000109a8       $unwind$?DoMbECMvCopy@WelsDec@@YAXPEAUTagWelsDecoderContext@1@PEAUTagPicture@1@1HHHPEAUTagMCRefMember@1@@Z 00000001800729a8     error_concealment.obj
 0002:000109c0       $unwind$?InitFmo@WelsDec@@YAHPEAUTagFmo@1@PEAUTagPps@1@HHPEAVCMemoryAlign@WelsCommon@@@Z 00000001800729c0     fmo.obj
 0002:000109d0       $unwind$?UninitFmoList@WelsDec@@YAXPEAUTagFmo@1@HHPEAVCMemoryAlign@WelsCommon@@@Z 00000001800729d0     fmo.obj
 0002:000109e0       $unwind$?FmoParamUpdate@WelsDec@@YA_NPEAUTagFmo@1@PEAUTagSps@1@PEAUTagPps@1@PEAHPEAVCMemoryAlign@WelsCommon@@@Z 00000001800729e0     fmo.obj
 0002:000109f0       $unwind$?FmoNextMb@WelsDec@@YAFPEAUTagFmo@1@F@Z 00000001800729f0     fmo.obj
 0002:00010a00       $unwind$?FmoGenerateMbAllocMapType0@WelsDec@@YAHPEAUTagFmo@1@PEAUTagPps@1@@Z 0000000180072a00     fmo.obj
 0002:00010a10       $unwind$?FmoGenerateMbAllocMapType1@WelsDec@@YAHPEAUTagFmo@1@PEAUTagPps@1@H@Z 0000000180072a10     fmo.obj
 0002:00010a20       $unwind$?FmoGenerateSliceGroup@WelsDec@@YAHPEAUTagFmo@1@QEAUTagPps@1@HHPEAVCMemoryAlign@WelsCommon@@@Z 0000000180072a20     fmo.obj
 0002:00010a30       $unwind$?FmoParamSetsChanged@WelsDec@@YA_NPEAUTagFmo@1@HHH@Z 0000000180072a30     fmo.obj
 0002:00010a40       $unwind$?FmoMbToSliceGroup@WelsDec@@YAHPEAUTagFmo@1@F@Z 0000000180072a40     fmo.obj
 0002:00010a50       $unwind$?WelsClip1@@YAEH@Z 0000000180072a50     get_intra_predictor.obj
 0002:00010a60       $unwind$?WelsI4x4LumaPredV_c@WelsDec@@YAXPEAEH@Z 0000000180072a60     get_intra_predictor.obj
 0002:00010a70       $unwind$?WelsI4x4LumaPredH_c@WelsDec@@YAXPEAEH@Z 0000000180072a70     get_intra_predictor.obj
 0002:00010a80       $unwind$?WelsI4x4LumaPredDc_c@WelsDec@@YAXPEAEH@Z 0000000180072a80     get_intra_predictor.obj
 0002:00010a90       $unwind$?WelsI4x4LumaPredDcLeft_c@WelsDec@@YAXPEAEH@Z 0000000180072a90     get_intra_predictor.obj
 0002:00010aa0       $unwind$?WelsI4x4LumaPredDcTop_c@WelsDec@@YAXPEAEH@Z 0000000180072aa0     get_intra_predictor.obj
 0002:00010ab0       $unwind$?WelsI4x4LumaPredDcNA_c@WelsDec@@YAXPEAEH@Z 0000000180072ab0     get_intra_predictor.obj
 0002:00010ac0       $unwind$?WelsI4x4LumaPredDDL_c@WelsDec@@YAXPEAEH@Z 0000000180072ac0     get_intra_predictor.obj
 0002:00010ad8       $unwind$?WelsI4x4LumaPredDDLTop_c@WelsDec@@YAXPEAEH@Z 0000000180072ad8     get_intra_predictor.obj
 0002:00010af0       $unwind$?WelsI4x4LumaPredDDR_c@WelsDec@@YAXPEAEH@Z 0000000180072af0     get_intra_predictor.obj
 0002:00010b08       $unwind$?WelsI4x4LumaPredVL_c@WelsDec@@YAXPEAEH@Z 0000000180072b08     get_intra_predictor.obj
 0002:00010b20       $unwind$?WelsI4x4LumaPredVLTop_c@WelsDec@@YAXPEAEH@Z 0000000180072b20     get_intra_predictor.obj
 0002:00010b38       $unwind$?WelsI4x4LumaPredVR_c@WelsDec@@YAXPEAEH@Z 0000000180072b38     get_intra_predictor.obj
 0002:00010b50       $unwind$?WelsI4x4LumaPredHU_c@WelsDec@@YAXPEAEH@Z 0000000180072b50     get_intra_predictor.obj
 0002:00010b68       $unwind$?WelsI4x4LumaPredHD_c@WelsDec@@YAXPEAEH@Z 0000000180072b68     get_intra_predictor.obj
 0002:00010b80       $unwind$?WelsI8x8LumaPredV_c@WelsDec@@YAXPEAEH_N1@Z 0000000180072b80     get_intra_predictor.obj
 0002:00010b90       $unwind$?WelsI8x8LumaPredH_c@WelsDec@@YAXPEAEH_N1@Z 0000000180072b90     get_intra_predictor.obj
 0002:00010ba0       $unwind$?WelsI8x8LumaPredDc_c@WelsDec@@YAXPEAEH_N1@Z 0000000180072ba0     get_intra_predictor.obj
 0002:00010bb0       $unwind$?WelsI8x8LumaPredDcLeft_c@WelsDec@@YAXPEAEH_N1@Z 0000000180072bb0     get_intra_predictor.obj
 0002:00010bc0       $unwind$?WelsI8x8LumaPredDcTop_c@WelsDec@@YAXPEAEH_N1@Z 0000000180072bc0     get_intra_predictor.obj
 0002:00010bd0       $unwind$?WelsI8x8LumaPredDcNA_c@WelsDec@@YAXPEAEH_N1@Z 0000000180072bd0     get_intra_predictor.obj
 0002:00010be0       $unwind$?WelsI8x8LumaPredDDL_c@WelsDec@@YAXPEAEH_N1@Z 0000000180072be0     get_intra_predictor.obj
 0002:00010bf0       $unwind$?WelsI8x8LumaPredDDLTop_c@WelsDec@@YAXPEAEH_N1@Z 0000000180072bf0     get_intra_predictor.obj
 0002:00010c00       $unwind$?WelsI8x8LumaPredDDR_c@WelsDec@@YAXPEAEH_N1@Z 0000000180072c00     get_intra_predictor.obj
 0002:00010c10       $unwind$?WelsI8x8LumaPredVL_c@WelsDec@@YAXPEAEH_N1@Z 0000000180072c10     get_intra_predictor.obj
 0002:00010c20       $unwind$?WelsI8x8LumaPredVLTop_c@WelsDec@@YAXPEAEH_N1@Z 0000000180072c20     get_intra_predictor.obj
 0002:00010c30       $unwind$?WelsI8x8LumaPredVR_c@WelsDec@@YAXPEAEH_N1@Z 0000000180072c30     get_intra_predictor.obj
 0002:00010c40       $unwind$?WelsI8x8LumaPredHU_c@WelsDec@@YAXPEAEH_N1@Z 0000000180072c40     get_intra_predictor.obj
 0002:00010c50       $unwind$?WelsI8x8LumaPredHD_c@WelsDec@@YAXPEAEH_N1@Z 0000000180072c50     get_intra_predictor.obj
 0002:00010c60       $unwind$?WelsIChromaPredV_c@WelsDec@@YAXPEAEH@Z 0000000180072c60     get_intra_predictor.obj
 0002:00010c70       $unwind$?WelsIChromaPredH_c@WelsDec@@YAXPEAEH@Z 0000000180072c70     get_intra_predictor.obj
 0002:00010c80       $unwind$?WelsIChromaPredPlane_c@WelsDec@@YAXPEAEH@Z 0000000180072c80     get_intra_predictor.obj
 0002:00010c90       $unwind$?WelsIChromaPredDc_c@WelsDec@@YAXPEAEH@Z 0000000180072c90     get_intra_predictor.obj
 0002:00010ca8       $unwind$?WelsIChromaPredDcLeft_c@WelsDec@@YAXPEAEH@Z 0000000180072ca8     get_intra_predictor.obj
 0002:00010cb8       $unwind$?WelsIChromaPredDcTop_c@WelsDec@@YAXPEAEH@Z 0000000180072cb8     get_intra_predictor.obj
 0002:00010cd0       $unwind$?WelsIChromaPredDcNA_c@WelsDec@@YAXPEAEH@Z 0000000180072cd0     get_intra_predictor.obj
 0002:00010ce0       $unwind$?WelsI16x16LumaPredV_c@WelsDec@@YAXPEAEH@Z 0000000180072ce0     get_intra_predictor.obj
 0002:00010cf0       $unwind$?WelsI16x16LumaPredH_c@WelsDec@@YAXPEAEH@Z 0000000180072cf0     get_intra_predictor.obj
 0002:00010d00       $unwind$?WelsI16x16LumaPredPlane_c@WelsDec@@YAXPEAEH@Z 0000000180072d00     get_intra_predictor.obj
 0002:00010d10       $unwind$?WelsI16x16LumaPredDc_c@WelsDec@@YAXPEAEH@Z 0000000180072d10     get_intra_predictor.obj
 0002:00010d20       $unwind$?WelsI16x16LumaPredDcTop_c@WelsDec@@YAXPEAEH@Z 0000000180072d20     get_intra_predictor.obj
 0002:00010d30       $unwind$?WelsI16x16LumaPredDcLeft_c@WelsDec@@YAXPEAEH@Z 0000000180072d30     get_intra_predictor.obj
 0002:00010d40       $unwind$?WelsI16x16LumaPredDcNA_c@WelsDec@@YAXPEAEH@Z 0000000180072d40     get_intra_predictor.obj
 0002:00010d50       $unwind$?WelsResetRefPic@WelsDec@@YAXPEAUTagWelsDecoderContext@1@@Z 0000000180072d50     manage_dec_ref.obj
 0002:00010d60       $unwind$?WelsInitRefList@WelsDec@@YAHPEAUTagWelsDecoderContext@1@H@Z 0000000180072d60     manage_dec_ref.obj
 0002:00010d70       $unwind$?WelsReorderRefList@WelsDec@@YAHPEAUTagWelsDecoderContext@1@@Z 0000000180072d70     manage_dec_ref.obj
 0002:00010d80       $unwind$?WelsMarkAsRef@WelsDec@@YAHPEAUTagWelsDecoderContext@1@@Z 0000000180072d80     manage_dec_ref.obj
 0002:00010d90       $unwind$?WelsDelShortFromList@WelsDec@@YAPEAUTagPicture@1@PEAUTagRefPic@1@H@Z 0000000180072d90     manage_dec_ref.obj
 0002:00010da0       $unwind$?WelsDelLongFromList@WelsDec@@YAPEAUTagPicture@1@PEAUTagRefPic@1@I@Z 0000000180072da0     manage_dec_ref.obj
 0002:00010db0       $unwind$?WelsDelShortFromListSetUnref@WelsDec@@YAPEAUTagPicture@1@PEAUTagRefPic@1@H@Z 0000000180072db0     manage_dec_ref.obj
 0002:00010dc0       $unwind$?WelsDelLongFromListSetUnref@WelsDec@@YAPEAUTagPicture@1@PEAUTagRefPic@1@I@Z 0000000180072dc0     manage_dec_ref.obj
 0002:00010dd0       $unwind$?MMCO@WelsDec@@YAHPEAUTagWelsDecoderContext@1@PEAUTagRefPicMarking@1@@Z 0000000180072dd0     manage_dec_ref.obj
 0002:00010de0       $unwind$?MMCOProcess@WelsDec@@YAHPEAUTagWelsDecoderContext@1@IHIHH@Z 0000000180072de0     manage_dec_ref.obj
 0002:00010df0       $unwind$?SlidingWindow@WelsDec@@YAHPEAUTagWelsDecoderContext@1@@Z 0000000180072df0     manage_dec_ref.obj
 0002:00010e00       $unwind$?AddShortTermToList@WelsDec@@YAHPEAUTagRefPic@1@PEAUTagPicture@1@@Z 0000000180072e00     manage_dec_ref.obj
 0002:00010e10       $unwind$?AddLongTermToList@WelsDec@@YAHPEAUTagRefPic@1@PEAUTagPicture@1@H@Z 0000000180072e10     manage_dec_ref.obj
 0002:00010e20       $unwind$?MarkAsLongTerm@WelsDec@@YAHPEAUTagRefPic@1@HH@Z 0000000180072e20     manage_dec_ref.obj
 0002:00010e30       $unwind$?GetLTRFrameIndex@WelsDec@@YAHPEAUTagRefPic@1@H@Z 0000000180072e30     manage_dec_ref.obj
 0002:00010e40       $unwind$?RemainOneBufferInDpbForEC@WelsDec@@YAHPEAUTagWelsDecoderContext@1@@Z 0000000180072e40     manage_dec_ref.obj
 0002:00010e50       $unwind$?SetUnRef@WelsDec@@YAXPEAUTagPicture@1@@Z 0000000180072e50     manage_dec_ref.obj
 0002:00010e60       $unwind$?MemInitNalList@WelsDec@@YAHPEAPEAUTagAccessUnits@1@IPEAVCMemoryAlign@WelsCommon@@@Z 0000000180072e60     memmgr_nal_unit.obj
 0002:00010e70       $unwind$?MemFreeNalList@WelsDec@@YAHPEAPEAUTagAccessUnits@1@PEAVCMemoryAlign@WelsCommon@@@Z 0000000180072e70     memmgr_nal_unit.obj
 0002:00010e80       $unwind$?MemGetNextNal@WelsDec@@YAPEAUTagNalUnit@1@PEAPEAUTagAccessUnits@1@PEAVCMemoryAlign@WelsCommon@@@Z 0000000180072e80     memmgr_nal_unit.obj
 0002:00010e90       $unwind$?ExpandNalUnitList@WelsDec@@YAHPEAPEAUTagAccessUnits@1@HHPEAVCMemoryAlign@WelsCommon@@@Z 0000000180072e90     memmgr_nal_unit.obj
 0002:00010ea8       $unwind$?WelsMedian@@YAHHHH@Z 0000000180072ea8     mv_pred.obj
 0002:00010eb8       $unwind$?UpdateP16x16MotionInfo@WelsDec@@YAXPEAUTagDqLayer@1@CQEAF@Z 0000000180072eb8     mv_pred.obj
 0002:00010ec8       $unwind$?UpdateP16x8MotionInfo@WelsDec@@YAXPEAUTagDqLayer@1@QEAY1BO@1FQEAY0BO@CHCQEAF@Z 0000000180072ec8     mv_pred.obj
 0002:00010ed8       $unwind$?UpdateP8x16MotionInfo@WelsDec@@YAXPEAUTagDqLayer@1@QEAY1BO@1FQEAY0BO@CHCQEAF@Z 0000000180072ed8     mv_pred.obj
 0002:00010ee8       $unwind$?PredPSkipMvFromNeighbor@WelsDec@@YAXPEAUTagDqLayer@1@QEAF@Z 0000000180072ee8     mv_pred.obj
 0002:00010f00       $unwind$?PredMv@WelsDec@@YAXQEAY1BO@1FQEAY0BO@CHHCQEAF@Z 0000000180072f00     mv_pred.obj
 0002:00010f18       $unwind$?PredInter16x8Mv@WelsDec@@YAXQEAY1BO@1FQEAY0BO@CHCQEAF@Z 0000000180072f18     mv_pred.obj
 0002:00010f28       $unwind$?PredInter8x16Mv@WelsDec@@YAXQEAY1BO@1FQEAY0BO@CHCQEAF@Z 0000000180072f28     mv_pred.obj
 0002:00010f38       $unwind$?GetMbResProperty@WelsDec@@YAXPEAH0_N@Z 0000000180072f38     parse_mb_syn_cabac.obj
 0002:00010f48       $unwind$?ParseEndOfSliceCabac@WelsDec@@YAHPEAUTagWelsDecoderContext@1@AEAI@Z 0000000180072f48     parse_mb_syn_cabac.obj
 0002:00010f58       $unwind$?ParseSkipFlagCabac@WelsDec@@YAHPEAUTagWelsDecoderContext@1@PEAUTagNeighborAvail@1@AEAI@Z 0000000180072f58     parse_mb_syn_cabac.obj
 0002:00010f68       $unwind$?ParseMBTypeISliceCabac@WelsDec@@YAHPEAUTagWelsDecoderContext@1@PEAUTagNeighborAvail@1@AEAI@Z 0000000180072f68     parse_mb_syn_cabac.obj
 0002:00010f80       $unwind$?ParseMBTypePSliceCabac@WelsDec@@YAHPEAUTagWelsDecoderContext@1@PEAUTagNeighborAvail@1@AEAI@Z 0000000180072f80     parse_mb_syn_cabac.obj
 0002:00010f98       $unwind$?ParseTransformSize8x8FlagCabac@WelsDec@@YAHPEAUTagWelsDecoderContext@1@PEAUTagNeighborAvail@1@AEA_N@Z 0000000180072f98     parse_mb_syn_cabac.obj
 0002:00010fb0       $unwind$?ParseSubMBTypeCabac@WelsDec@@YAHPEAUTagWelsDecoderContext@1@PEAUTagNeighborAvail@1@AEAI@Z 0000000180072fb0     parse_mb_syn_cabac.obj
 0002:00010fc8       $unwind$?ParseIntraPredModeLumaCabac@WelsDec@@YAHPEAUTagWelsDecoderContext@1@AEAH@Z 0000000180072fc8     parse_mb_syn_cabac.obj
 0002:00010fe0       $unwind$?ParseIntraPredModeChromaCabac@WelsDec@@YAHPEAUTagWelsDecoderContext@1@EAEAH@Z 0000000180072fe0     parse_mb_syn_cabac.obj
 0002:00010ff8       $unwind$?ParseInterMotionInfoCabac@WelsDec@@YAHPEAUTagWelsDecoderContext@1@PEAUTagNeighborAvail@1@PEAEQEAY1BO@1F3QEAY0BO@C@Z 0000000180072ff8     parse_mb_syn_cabac.obj
 0002:00011010       $unwind$?ParseRefIdxCabac@WelsDec@@YAHPEAUTagWelsDecoderContext@1@PEAUTagNeighborAvail@1@PEAEQEAY0BO@CHHHHAEAC@Z 0000000180073010     parse_mb_syn_cabac.obj
 0002:00011028       $unwind$?ParseMvdInfoCabac@WelsDec@@YAHPEAUTagWelsDecoderContext@1@PEAUTagNeighborAvail@1@QEAY0BO@CQEAY1BO@1FHCCAEAF@Z 0000000180073028     parse_mb_syn_cabac.obj
 0002:00011040       $unwind$?ParseCbpInfoCabac@WelsDec@@YAHPEAUTagWelsDecoderContext@1@PEAUTagNeighborAvail@1@AEAI@Z 0000000180073040     parse_mb_syn_cabac.obj
 0002:00011058       $unwind$?ParseDeltaQpCabac@WelsDec@@YAHPEAUTagWelsDecoderContext@1@AEAH@Z 0000000180073058     parse_mb_syn_cabac.obj
 0002:00011070       $unwind$?ParseCbfInfoCabac@WelsDec@@YAHPEAUTagNeighborAvail@1@PEAEHHPEAUTagWelsDecoderContext@1@AEAI@Z 0000000180073070     parse_mb_syn_cabac.obj
 0002:00011080       $unwind$?ParseSignificantMapCabac@WelsDec@@YAHPEAHHPEAUTagWelsDecoderContext@1@AEAI@Z 0000000180073080     parse_mb_syn_cabac.obj
 0002:00011098       $unwind$?ParseSignificantCoeffCabac@WelsDec@@YAHPEAHHPEAUTagWelsDecoderContext@1@@Z 0000000180073098     parse_mb_syn_cabac.obj
 0002:000110b0       $unwind$?ParseResidualBlockCabac@WelsDec@@YAHPEAUTagNeighborAvail@1@PEAEPEAUTagBitStringAux@WelsCommon@@HHPEBEHPEAFEPEAUTagWelsDecoderContext@1@@Z 00000001800730b0     parse_mb_syn_cabac.obj
 0002:000110c8       $unwind$?ParseResidualBlockCabac8x8@WelsDec@@YAHPEAUTagNeighborAvail@1@PEAEPEAUTagBitStringAux@WelsCommon@@HHPEBEHPEAFEPEAUTagWelsDecoderContext@1@@Z 00000001800730c8     parse_mb_syn_cabac.obj
 0002:000110e0       $unwind$?ParseIPCMInfoCabac@WelsDec@@YAHPEAUTagWelsDecoderContext@1@@Z 00000001800730e0     parse_mb_syn_cabac.obj
 0002:000110f0       $unwind$?UpdateP16x8RefIdxCabac@WelsDec@@YAXPEAUTagDqLayer@1@QEAY0BO@CHCC@Z 00000001800730f0     parse_mb_syn_cabac.obj
 0002:00011100       $unwind$?UpdateP8x16RefIdxCabac@WelsDec@@YAXPEAUTagDqLayer@1@QEAY0BO@CHCC@Z 0000000180073100     parse_mb_syn_cabac.obj
 0002:00011110       $unwind$?UpdateP8x8RefIdxCabac@WelsDec@@YAXPEAUTagDqLayer@1@QEAY0BO@CHCC@Z 0000000180073110     parse_mb_syn_cabac.obj
 0002:00011120       $unwind$?UpdateP16x16MvdCabac@WelsDec@@YAXPEAUTagDqLayer@1@QEAFC@Z 0000000180073120     parse_mb_syn_cabac.obj
 0002:00011138       $unwind$?UpdateP16x8MvdCabac@WelsDec@@YAXPEAUTagDqLayer@1@QEAY1BO@1FHQEAFC@Z 0000000180073138     parse_mb_syn_cabac.obj
 0002:00011150       $unwind$?UpdateP8x16MvdCabac@WelsDec@@YAXPEAUTagDqLayer@1@QEAY1BO@1FHQEAFC@Z 0000000180073150     parse_mb_syn_cabac.obj
 0002:00011168       $unwind$?GetMbResProperty@WelsDec@@YAXPEAH0_N@Z 0000000180073168     parse_mb_syn_cavlc.obj
 0002:00011178       $unwind$?BsGetBits@WelsDec@@YAHPEAUTagBitStringAux@WelsCommon@@HPEAI@Z 0000000180073178     parse_mb_syn_cavlc.obj
 0002:00011188       $unwind$?GetPrefixBits@WelsDec@@YAII@Z 0000000180073188     parse_mb_syn_cavlc.obj
 0002:00011198       $unwind$?BsGetOneBit@WelsDec@@YAIPEAUTagBitStringAux@WelsCommon@@PEAI@Z 0000000180073198     parse_mb_syn_cavlc.obj
 0002:000111a8       $unwind$?GetLeadingZeroBits@WelsDec@@YAHI@Z 00000001800731a8     parse_mb_syn_cavlc.obj
 0002:000111b8       $unwind$?BsGetUe@WelsDec@@YAIPEAUTagBitStringAux@WelsCommon@@PEAI@Z 00000001800731b8     parse_mb_syn_cavlc.obj
 0002:000111c8       $unwind$?BsGetSe@WelsDec@@YAHPEAUTagBitStringAux@WelsCommon@@PEAH@Z 00000001800731c8     parse_mb_syn_cavlc.obj
 0002:000111e0       $unwind$?BsGetTe0@WelsDec@@YAHPEAUTagBitStringAux@WelsCommon@@HPEAI@Z 00000001800731e0     parse_mb_syn_cavlc.obj
 0002:000111f0       $unwind$?GetNeighborAvailMbType@WelsDec@@YAXPEAUTagNeighborAvail@1@PEAUTagDqLayer@1@@Z 00000001800731f0     parse_mb_syn_cavlc.obj
 0002:00011200       $unwind$?WelsFillCacheNonZeroCount@WelsDec@@YAXPEAUTagNeighborAvail@1@PEAEPEAUTagDqLayer@1@@Z 0000000180073200     parse_mb_syn_cavlc.obj
 0002:00011210       $unwind$?WelsFillCacheConstrain0IntraNxN@WelsDec@@YAXPEAUTagNeighborAvail@1@PEAEPEACPEAUTagDqLayer@1@@Z 0000000180073210     parse_mb_syn_cavlc.obj
 0002:00011220       $unwind$?WelsFillCacheConstrain1IntraNxN@WelsDec@@YAXPEAUTagNeighborAvail@1@PEAEPEACPEAUTagDqLayer@1@@Z 0000000180073220     parse_mb_syn_cavlc.obj
 0002:00011230       $unwind$?WelsFillCacheInterCabac@WelsDec@@YAXPEAUTagNeighborAvail@1@PEAEQEAY1BO@1F2QEAY0BO@CPEAUTagDqLayer@1@@Z 0000000180073230     parse_mb_syn_cavlc.obj
 0002:00011240       $unwind$?WelsFillCacheInter@WelsDec@@YAXPEAUTagNeighborAvail@1@PEAEQEAY1BO@1FQEAY0BO@CPEAUTagDqLayer@1@@Z 0000000180073240     parse_mb_syn_cavlc.obj
 0002:00011250       $unwind$?CheckIntra16x16PredMode@WelsDec@@YAHEPEAC@Z 0000000180073250     parse_mb_syn_cavlc.obj
 0002:00011260       $unwind$?CheckIntraNxNPredMode@WelsDec@@YAHPEAHPEACH_N@Z 0000000180073260     parse_mb_syn_cavlc.obj
 0002:00011270       $unwind$?CheckIntraChromaPredMode@WelsDec@@YAHEPEAC@Z 0000000180073270     parse_mb_syn_cavlc.obj
 0002:00011280       $unwind$?PredIntra4x4Mode@WelsDec@@YAHPEACH@Z 0000000180073280     parse_mb_syn_cavlc.obj
 0002:00011290       $unwind$?BsStartCavlc@WelsDec@@YAXPEAUTagBitStringAux@WelsCommon@@@Z 0000000180073290     parse_mb_syn_cavlc.obj
 0002:000112a0       $unwind$?BsEndCavlc@WelsDec@@YAXPEAUTagBitStringAux@WelsCommon@@@Z 00000001800732a0     parse_mb_syn_cavlc.obj
 0002:000112b0       $unwind$?WelsResidualBlockCavlc@WelsDec@@YAHPEAUTagVlcTable@1@PEAEPEAUTagBitStringAux@WelsCommon@@HHPEBEHPEAFEPEAUTagWelsDecoderContext@1@@Z 00000001800732b0     parse_mb_syn_cavlc.obj
 0002:000112c8       $unwind$?WelsResidualBlockCavlc8x8@WelsDec@@YAHPEAUTagVlcTable@1@PEAEPEAUTagBitStringAux@WelsCommon@@HHPEBEHPEAFHEPEAUTagWelsDecoderContext@1@@Z 00000001800732c8     parse_mb_syn_cavlc.obj
 0002:000112e0       $unwind$?ParseInterInfo@WelsDec@@YAHPEAUTagWelsDecoderContext@1@QEAY1BO@1FQEAY0BO@CPEAUTagBitStringAux@WelsCommon@@@Z 00000001800732e0     parse_mb_syn_cavlc.obj
 0002:000112f8       $unwind$?CavlcGetTrailingOnesAndTotalCoeff@WelsDec@@YAHAEAE0PEAUTagReadBitsCache@1@PEAUTagVlcTable@1@_NC@Z 00000001800732f8     parse_mb_syn_cavlc.obj
 0002:00011308       $unwind$?CavlcGetLevelVal@WelsDec@@YAHQEAHPEAUTagReadBitsCache@1@EE@Z 0000000180073308     parse_mb_syn_cavlc.obj
 0002:00011318       $unwind$?CavlcGetTotalZeros@WelsDec@@YAHAEAHPEAUTagReadBitsCache@1@EPEAUTagVlcTable@1@_N@Z 0000000180073318     parse_mb_syn_cavlc.obj
 0002:00011328       $unwind$?CavlcGetRunBefore@WelsDec@@YAHQEAHPEAUTagReadBitsCache@1@EPEAUTagVlcTable@1@H@Z 0000000180073328     parse_mb_syn_cavlc.obj
 0002:00011338       $unwind$?PrefetchPic@WelsDec@@YAPEAUTagPicture@1@PEAUTagPicBuff@1@@Z 0000000180073338     pic_queue.obj
 0002:00011348       $unwind$?FreePicture@WelsDec@@YAXPEAUTagPicture@1@PEAVCMemoryAlign@WelsCommon@@@Z 0000000180073348     pic_queue.obj
 0002:00011358       $unwind$?AllocPicture@WelsDec@@YAPEAUTagPicture@1@PEAUTagWelsDecoderContext@1@HH@Z 0000000180073358     pic_queue.obj
 0002:00011368       $unwind$?BaseMC@WelsDec@@YAXPEAUTagMCRefMember@1@HHPEAUTagMcFunc@@HHQEAF@Z 0000000180073368     rec_mb.obj
 0002:00011378       $unwind$?WelsFillRecNeededMbInfo@WelsDec@@YAXPEAUTagWelsDecoderContext@1@_NPEAUTagDqLayer@1@@Z 0000000180073378     rec_mb.obj
 0002:00011388       $unwind$?RecI4x4Mb@WelsDec@@YAHHPEAUTagWelsDecoderContext@1@PEAFPEAUTagDqLayer@1@@Z 0000000180073388     rec_mb.obj
 0002:00011398       $unwind$?RecI4x4Luma@WelsDec@@YAHHPEAUTagWelsDecoderContext@1@PEAFPEAUTagDqLayer@1@@Z 0000000180073398     rec_mb.obj
 0002:000113a8       $unwind$?RecI4x4Chroma@WelsDec@@YAHHPEAUTagWelsDecoderContext@1@PEAFPEAUTagDqLayer@1@@Z 00000001800733a8     rec_mb.obj
 0002:000113b8       $unwind$?RecI8x8Mb@WelsDec@@YAHHPEAUTagWelsDecoderContext@1@PEAFPEAUTagDqLayer@1@@Z 00000001800733b8     rec_mb.obj
 0002:000113c8       $unwind$?RecI8x8Luma@WelsDec@@YAHHPEAUTagWelsDecoderContext@1@PEAFPEAUTagDqLayer@1@@Z 00000001800733c8     rec_mb.obj
 0002:000113d8       $unwind$?RecI16x16Mb@WelsDec@@YAHHPEAUTagWelsDecoderContext@1@PEAFPEAUTagDqLayer@1@@Z 00000001800733d8     rec_mb.obj
 0002:000113e8       $unwind$?RecChroma@WelsDec@@YAHHPEAUTagWelsDecoderContext@1@PEAFPEAUTagDqLayer@1@@Z 00000001800733e8     rec_mb.obj
 0002:000113f8       $unwind$?GetInterPred@WelsDec@@YAXPEAE00PEAUTagWelsDecoderContext@1@@Z 00000001800733f8     rec_mb.obj
 0002:00011410       $unwind$?GetRefPic@WelsDec@@YAXPEAUTagMCRefMember@1@PEAUTagWelsDecoderContext@1@PEACH@Z 0000000180073410     rec_mb.obj
 0002:00011420       $unwind$?WeightPrediction@WelsDec@@YAXPEAUTagDqLayer@1@PEAUTagMCRefMember@1@HHH@Z 0000000180073420     rec_mb.obj
 0002:00011430       $unwind$??1ISVCDecoder@@UEAA@XZ 0000000180073430     welsDecoderExt.obj
 0002:00011448       $cppxdata$??1ISVCDecoder@@UEAA@XZ 0000000180073448     welsDecoderExt.obj
 0002:0001144d       $ip2state$??1ISVCDecoder@@UEAA@XZ 000000018007344d     welsDecoderExt.obj
 0002:00011450       $unwind$??0ISVCDecoder@@QEAA@XZ 0000000180073450     welsDecoderExt.obj
 0002:00011460       $unwind$??_GISVCDecoder@@UEAAPEAXI@Z 0000000180073460     welsDecoderExt.obj
 0002:00011470       $unwind$WelsGetDecoderCapability 0000000180073470     welsDecoderExt.obj
 0002:00011480       $unwind$WelsCreateDecoder  0000000180073480     welsDecoderExt.obj
 0002:00011490       $unwind$WelsDestroyDecoder 0000000180073490     welsDecoderExt.obj
 0002:000114a0       $unwind$?__autoclassinit2@welsCodecTrace@@QEAAX_K@Z 00000001800734a0     welsDecoderExt.obj
 0002:000114b0       $unwind$??_GwelsCodecTrace@@QEAAPEAXI@Z 00000001800734b0     welsDecoderExt.obj
 0002:000114c0       $unwind$??0CWelsDecoder@WelsDec@@QEAA@XZ 00000001800734c0     welsDecoderExt.obj
 0002:000114d8       $cppxdata$??0CWelsDecoder@WelsDec@@QEAA@XZ 00000001800734d8     welsDecoderExt.obj
 0002:000114e1       $stateUnwindMap$??0CWelsDecoder@WelsDec@@QEAA@XZ 00000001800734e1     welsDecoderExt.obj
 0002:000114ec       $ip2state$??0CWelsDecoder@WelsDec@@QEAA@XZ 00000001800734ec     welsDecoderExt.obj
 0002:000114f8       $unwind$?dtor$0@?0???0CWelsDecoder@WelsDec@@QEAA@XZ@4HA 00000001800734f8     welsDecoderExt.obj
 0002:00011504       $unwind$?dtor$1@?0???0CWelsDecoder@WelsDec@@QEAA@XZ@4HA 0000000180073504     welsDecoderExt.obj
 0002:00011510       $unwind$??1CWelsDecoder@WelsDec@@UEAA@XZ 0000000180073510     welsDecoderExt.obj
 0002:00011528       $cppxdata$??1CWelsDecoder@WelsDec@@UEAA@XZ 0000000180073528     welsDecoderExt.obj
 0002:0001152d       $ip2state$??1CWelsDecoder@WelsDec@@UEAA@XZ 000000018007352d     welsDecoderExt.obj
 0002:00011530       $unwind$?Initialize@CWelsDecoder@WelsDec@@UEAAJPEBUTagSVCDecodingParam@@@Z 0000000180073530     welsDecoderExt.obj
 0002:00011540       $unwind$?Uninitialize@CWelsDecoder@WelsDec@@UEAAJXZ 0000000180073540     welsDecoderExt.obj
 0002:00011550       $unwind$?DecodeFrame@CWelsDecoder@WelsDec@@UEAA?AW4DECODING_STATE@@PEBEHPEAPEAEPEAHAEAH3@Z 0000000180073550     welsDecoderExt.obj
 0002:00011568       $unwind$?DecodeFrameNoDelay@CWelsDecoder@WelsDec@@UEAA?AW4DECODING_STATE@@PEBEHPEAPEAEPEAUTagBufferInfo@@@Z 0000000180073568     welsDecoderExt.obj
 0002:00011578       $unwind$?DecodeFrame2@CWelsDecoder@WelsDec@@UEAA?AW4DECODING_STATE@@PEBEHPEAPEAEPEAUTagBufferInfo@@@Z 0000000180073578     welsDecoderExt.obj
 0002:00011588       $unwind$?DecodeParser@CWelsDecoder@WelsDec@@UEAA?AW4DECODING_STATE@@PEBEHPEAUTagParserBsInfo@@@Z 0000000180073588     welsDecoderExt.obj
 0002:00011598       $unwind$?DecodeFrameEx@CWelsDecoder@WelsDec@@UEAA?AW4DECODING_STATE@@PEBEHPEAEHAEAH222@Z 0000000180073598     welsDecoderExt.obj
 0002:000115a8       $unwind$?SetOption@CWelsDecoder@WelsDec@@UEAAJW4DECODER_OPTION@@PEAX@Z 00000001800735a8     welsDecoderExt.obj
 0002:000115b8       $unwind$?GetOption@CWelsDecoder@WelsDec@@UEAAJW4DECODER_OPTION@@PEAX@Z 00000001800735b8     welsDecoderExt.obj
 0002:000115c8       $unwind$?InitDecoder@CWelsDecoder@WelsDec@@AEAAH_N@Z 00000001800735c8     welsDecoderExt.obj
 0002:000115e0       $cppxdata$?InitDecoder@CWelsDecoder@WelsDec@@AEAAH_N@Z 00000001800735e0     welsDecoderExt.obj
 0002:000115e9       $stateUnwindMap$?InitDecoder@CWelsDecoder@WelsDec@@AEAAH_N@Z 00000001800735e9     welsDecoderExt.obj
 0002:000115ef       $ip2state$?InitDecoder@CWelsDecoder@WelsDec@@AEAAH_N@Z 00000001800735ef     welsDecoderExt.obj
 0002:000115f8       $unwind$?dtor$0@?0??InitDecoder@CWelsDecoder@WelsDec@@AEAAH_N@Z@4HA 00000001800735f8     welsDecoderExt.obj
 0002:00011604       $unwind$?UninitDecoder@CWelsDecoder@WelsDec@@AEAAXXZ 0000000180073604     welsDecoderExt.obj
 0002:00011614       $unwind$?ResetDecoder@CWelsDecoder@WelsDec@@AEAAHXZ 0000000180073614     welsDecoderExt.obj
 0002:0001162c       $unwind$?__autoclassinit2@CWelsDecoder@WelsDec@@QEAAX_K@Z 000000018007362c     welsDecoderExt.obj
 0002:0001163c       $unwind$??_GCWelsDecoder@WelsDec@@UEAAPEAXI@Z 000000018007363c     welsDecoderExt.obj
 0002:0001164c       $unwind$WelsTime           000000018007364c     welsDecoderExt.obj
 0002:00011664       $unwind$?WelsMemset@WelsVP@@YAPEAXPEAXHI@Z 0000000180073664     AdaptiveQuantization.obj
 0002:00011674       $unwind$??1IWelsVP@@UEAA@XZ 0000000180073674     AdaptiveQuantization.obj
 0002:0001168c       $cppxdata$??1IWelsVP@@UEAA@XZ 000000018007368c     AdaptiveQuantization.obj
 0002:00011691       $ip2state$??1IWelsVP@@UEAA@XZ 0000000180073691     AdaptiveQuantization.obj
 0002:00011694       $unwind$??0IWelsVP@@QEAA@XZ 0000000180073694     AdaptiveQuantization.obj
 0002:000116a4       $unwind$??_GIWelsVP@@UEAAPEAXI@Z 00000001800736a4     AdaptiveQuantization.obj
 0002:000116b4       $unwind$??0IStrategy@WelsVP@@QEAA@XZ 00000001800736b4     AdaptiveQuantization.obj
 0002:000116c4       $unwind$??1IStrategy@WelsVP@@UEAA@XZ 00000001800736c4     AdaptiveQuantization.obj
 0002:000116dc       $cppxdata$??1IStrategy@WelsVP@@UEAA@XZ 00000001800736dc     AdaptiveQuantization.obj
 0002:000116e1       $ip2state$??1IStrategy@WelsVP@@UEAA@XZ 00000001800736e1     AdaptiveQuantization.obj
 0002:000116e4       $unwind$?Init@IStrategy@WelsVP@@UEAA?AW4EResult@@HPEAX@Z 00000001800736e4     AdaptiveQuantization.obj
 0002:000116f4       $unwind$?Uninit@IStrategy@WelsVP@@UEAA?AW4EResult@@H@Z 00000001800736f4     AdaptiveQuantization.obj
 0002:00011704       $unwind$?Flush@IStrategy@WelsVP@@UEAA?AW4EResult@@H@Z 0000000180073704     AdaptiveQuantization.obj
 0002:00011714       $unwind$?Get@IStrategy@WelsVP@@UEAA?AW4EResult@@HPEAX@Z 0000000180073714     AdaptiveQuantization.obj
 0002:00011724       $unwind$?Set@IStrategy@WelsVP@@UEAA?AW4EResult@@HPEAX@Z 0000000180073724     AdaptiveQuantization.obj
 0002:00011734       $unwind$?SpecialFeature@IStrategy@WelsVP@@UEAA?AW4EResult@@HPEAX0@Z 0000000180073734     AdaptiveQuantization.obj
 0002:00011744       $unwind$??_GIStrategy@WelsVP@@UEAAPEAXI@Z 0000000180073744     AdaptiveQuantization.obj
 0002:00011754       $unwind$?SampleVariance16x16_c@WelsVP@@YAXPEAEH0HPEAUSMotionTextureUnit@@@Z 0000000180073754     AdaptiveQuantization.obj
 0002:00011764       $unwind$??0CAdaptiveQuantization@WelsVP@@QEAA@H@Z 0000000180073764     AdaptiveQuantization.obj
 0002:0001177c       $cppxdata$??0CAdaptiveQuantization@WelsVP@@QEAA@H@Z 000000018007377c     AdaptiveQuantization.obj
 0002:00011785       $stateUnwindMap$??0CAdaptiveQuantization@WelsVP@@QEAA@H@Z 0000000180073785     AdaptiveQuantization.obj
 0002:0001178b       $ip2state$??0CAdaptiveQuantization@WelsVP@@QEAA@H@Z 000000018007378b     AdaptiveQuantization.obj
 0002:00011794       $unwind$?dtor$0@?0???0CAdaptiveQuantization@WelsVP@@QEAA@H@Z@4HA 0000000180073794     AdaptiveQuantization.obj
 0002:000117a0       $unwind$??1CAdaptiveQuantization@WelsVP@@UEAA@XZ 00000001800737a0     AdaptiveQuantization.obj
 0002:000117b8       $cppxdata$??1CAdaptiveQuantization@WelsVP@@UEAA@XZ 00000001800737b8     AdaptiveQuantization.obj
 0002:000117bd       $ip2state$??1CAdaptiveQuantization@WelsVP@@UEAA@XZ 00000001800737bd     AdaptiveQuantization.obj
 0002:000117c0       $unwind$?Process@CAdaptiveQuantization@WelsVP@@UEAA?AW4EResult@@HPEAUSPixMap@@0@Z 00000001800737c0     AdaptiveQuantization.obj
 0002:000117d0       $unwind$?Set@CAdaptiveQuantization@WelsVP@@UEAA?AW4EResult@@HPEAX@Z 00000001800737d0     AdaptiveQuantization.obj
 0002:000117e0       $unwind$?Get@CAdaptiveQuantization@WelsVP@@UEAA?AW4EResult@@HPEAX@Z 00000001800737e0     AdaptiveQuantization.obj
 0002:000117f0       $unwind$?WelsInitVarFunc@CAdaptiveQuantization@WelsVP@@AEAAXAEAP6AXPEAEH0HPEAUSMotionTextureUnit@@@ZH@Z 00000001800737f0     AdaptiveQuantization.obj
 0002:00011800       $unwind$??_GCAdaptiveQuantization@WelsVP@@UEAAPEAXI@Z 0000000180073800     AdaptiveQuantization.obj
 0002:00011810       $unwind$_RTC_Shutdown      0000000180073810     MSVCRTD:init.obj
 0002:00011818       $unwind$_RTC_InitBase      0000000180073818     MSVCRTD:init.obj
 0002:00011820       $unwind$__CheckForDebuggerJustMyCode 0000000180073820     MSVCRTD:debugger_jmc.obj
 0002:00011828       $unwind$_RTC_CheckStackVars 0000000180073828     MSVCRTD:stack.obj
 0002:00011838       $chain$0$_RTC_CheckStackVars 0000000180073838     MSVCRTD:stack.obj
 0002:0001184c       $chain$1$_RTC_CheckStackVars 000000018007384c     MSVCRTD:stack.obj
 0002:0001185c       $unwind$_RTC_CheckStackVars2 000000018007385c     MSVCRTD:stack.obj
 0002:00011868       $chain$1$_RTC_CheckStackVars2 0000000180073868     MSVCRTD:stack.obj
 0002:00011880       $chain$2$_RTC_CheckStackVars2 0000000180073880     MSVCRTD:stack.obj
 0002:00011894       $chain$3$_RTC_CheckStackVars2 0000000180073894     MSVCRTD:stack.obj
 0002:000118a8       $chain$4$_RTC_CheckStackVars2 00000001800738a8     MSVCRTD:stack.obj
 0002:000118b8       $chain$5$_RTC_CheckStackVars2 00000001800738b8     MSVCRTD:stack.obj
 0002:000118c8       $chain$6$_RTC_CheckStackVars2 00000001800738c8     MSVCRTD:stack.obj
 0002:000118d8       $unwind$_RTC_AllocaHelper  00000001800738d8     MSVCRTD:stack.obj
 0002:000118e0       $chain$0$_RTC_AllocaHelper 00000001800738e0     MSVCRTD:stack.obj
 0002:000118f4       $chain$1$_RTC_AllocaHelper 00000001800738f4     MSVCRTD:stack.obj
 0002:00011904       $unwind$__GSHandlerCheckCommon 0000000180073904     MSVCRTD:gshandler.obj
 0002:0001190c       $unwind$__GSHandlerCheck   000000018007390c     MSVCRTD:gshandler.obj
 0002:00011918       $xdatasym                  0000000180073918     MSVCRTD:amdsecgs.obj
 0002:0001191c       $unwind$??3@YAXPEAX_K@Z    000000018007391c     MSVCRTD:delete_scalar_size.obj
 0002:00011924       $unwind$??_Gtype_info@@UEAAPEAXI@Z 0000000180073924     MSVCRTD:std_type_info_static.obj
 0002:00011930       $xdatasym                  0000000180073930     MSVCRTD:chkstk.obj
 0002:00011938       $unwind$_RTC_UninitUse     0000000180073938     MSVCRTD:error.obj
 0002:00011950       $unwind$?_RTC_StackFailure@@YAXPEAXPEBD@Z 0000000180073950     MSVCRTD:error.obj
 0002:0001196c       $unwind$?_RTC_AllocaFailure@@YAXPEAXPEAU_RTC_ALLOCA_NODE@@H@Z 000000018007396c     MSVCRTD:error.obj
 0002:00011984       $chain$0$?_RTC_AllocaFailure@@YAXPEAXPEAU_RTC_ALLOCA_NODE@@H@Z 0000000180073984     MSVCRTD:error.obj
 0002:00011998       $chain$1$?_RTC_AllocaFailure@@YAXPEAXPEAU_RTC_ALLOCA_NODE@@H@Z 0000000180073998     MSVCRTD:error.obj
 0002:000119a8       $unwind$_vsprintf_s_l      00000001800739a8     MSVCRTD:error.obj
 0002:000119bc       $unwind$sprintf_s          00000001800739bc     MSVCRTD:error.obj
 0002:000119c4       $unwind$?notify_debugger@@YAXAEBUtagEXCEPTION_VISUALCPP_DEBUG_INFO@@@Z 00000001800739c4     MSVCRTD:error.obj
 0002:000119e4       $unwind$?filt$0@?0??notify_debugger@@YAXAEBUtagEXCEPTION_VISUALCPP_DEBUG_INFO@@@Z@4HA 00000001800739e4     MSVCRTD:error.obj
 0002:000119ec       $unwind$?DebuggerProbe@@YA_NK@Z 00000001800739ec     MSVCRTD:error.obj
 0002:000119f4       $unwind$?DebuggerRuntime@@YA_NKHPEAXPEB_W@Z 00000001800739f4     MSVCRTD:error.obj
 0002:000119fc       $unwind$?failwithmessage@@YAXPEAXHHPEBD@Z 00000001800739fc     MSVCRTD:error.obj
 0002:00011a20       $unwind$?_getMemBlockDataString@@YAXPEAD0PEBD_K@Z 0000000180073a20     MSVCRTD:error.obj
 0002:00011a30       $chain$3$?_getMemBlockDataString@@YAXPEAD0PEBD_K@Z 0000000180073a30     MSVCRTD:error.obj
 0002:00011a50       $chain$4$?_getMemBlockDataString@@YAXPEAD0PEBD_K@Z 0000000180073a50     MSVCRTD:error.obj
 0002:00011a60       $unwind$__report_securityfailure 0000000180073a60     MSVCRTD:gs_report.obj
 0002:00011a68       $unwind$__report_securityfailureEx 0000000180073a68     MSVCRTD:gs_report.obj
 0002:00011a70       $unwind$__report_rangecheckfailure 0000000180073a70     MSVCRTD:gs_report.obj
 0002:00011a78       $unwind$__report_gsfailure 0000000180073a78     MSVCRTD:gs_report.obj
 0002:00011a80       $unwind$capture_current_context 0000000180073a80     MSVCRTD:gs_report.obj
 0002:00011a88       $unwind$capture_previous_context 0000000180073a88     MSVCRTD:gs_report.obj
 0002:00011a90       $unwind$__raise_securityfailure 0000000180073a90     MSVCRTD:gs_report.obj
 0002:00011a98       $unwind$??2@YAPEAX_K@Z     0000000180073a98     MSVCRTD:new_scalar.obj
 0002:00011aa0       $unwind$?dllmain_crt_process_attach@@YAHQEAUHINSTANCE__@@QEAX@Z 0000000180073aa0     MSVCRTD:dll_dllmain.obj
 0002:00011ac0       $unwind$?fin$0@?0??dllmain_crt_process_attach@@YAHQEAUHINSTANCE__@@QEAX@Z@4HA 0000000180073ac0     MSVCRTD:dll_dllmain.obj
 0002:00011ac8       $unwind$?dllmain_crt_process_detach@@YAH_N@Z 0000000180073ac8     MSVCRTD:dll_dllmain.obj
 0002:00011af8       $unwind$?fin$0@?0??dllmain_crt_process_detach@@YAH_N@Z@4HA 0000000180073af8     MSVCRTD:dll_dllmain.obj
 0002:00011b00       $unwind$?fin$1@?0??dllmain_crt_process_detach@@YAH_N@Z@4HA 0000000180073b00     MSVCRTD:dll_dllmain.obj
 0002:00011b08       $unwind$?dllmain_crt_dispatch@@YAHQEAUHINSTANCE__@@KQEAX@Z 0000000180073b08     MSVCRTD:dll_dllmain.obj
 0002:00011b10       $unwind$_CRT_INIT          0000000180073b10     MSVCRTD:dll_dllmain.obj
 0002:00011b18       $unwind$?dllmain_raw@@YAHQEAUHINSTANCE__@@KQEAX@Z 0000000180073b18     MSVCRTD:dll_dllmain.obj
 0002:00011b20       $unwind$?dllmain_dispatch@@YAHQEAUHINSTANCE__@@KQEAX@Z 0000000180073b20     MSVCRTD:dll_dllmain.obj
 0002:00011b40       $unwind$?filt$0@?0??dllmain_dispatch@@YAHQEAUHINSTANCE__@@KQEAX@Z@4HA 0000000180073b40     MSVCRTD:dll_dllmain.obj
 0002:00011b48       $unwind$_DllMainCRTStartup 0000000180073b48     MSVCRTD:dll_dllmain.obj
 0002:00011b50       $unwind$??3@YAXPEAX@Z      0000000180073b50     MSVCRTD:delete_scalar.obj
 0002:00011b58       $unwind$?_RTC_GetSrcLine@@YAHPEAEPEA_WKPEAH1K@Z 0000000180073b58     MSVCRTD:pdblkup.obj
 0002:00011b70       $unwind$?GetPdbDllFromInstallPath@@YAPEAUHINSTANCE__@@XZ 0000000180073b70     MSVCRTD:pdblkup.obj
 0002:00011b94       $unwind$?GetPdbDllPathFromFilePath@@YAHPEB_WPEA_W_K@Z 0000000180073b94     MSVCRTD:pdblkup.obj
 0002:00011bac       $unwind$?GetPdbDll@@YAPEAUHINSTANCE__@@XZ 0000000180073bac     MSVCRTD:pdblkup.obj
 0002:00011bbc       $unwind$ReadNoFence64      0000000180073bbc     MSVCRTD:guard_support.obj
 0002:00011bc4       $unwind$ReadPointerNoFence 0000000180073bc4     MSVCRTD:guard_support.obj
 0002:00011bcc       $unwind$_guard_icall_checks_enforced 0000000180073bcc     MSVCRTD:guard_support.obj
 0002:00011bd4       $unwind$??0exception@std@@QEAA@QEBDH@Z 0000000180073bd4     MSVCRTD:throw_bad_alloc.obj
 0002:00011bdc       $unwind$??0exception@std@@QEAA@AEBV01@@Z 0000000180073bdc     MSVCRTD:throw_bad_alloc.obj
 0002:00011be4       $unwind$??1exception@std@@UEAA@XZ 0000000180073be4     MSVCRTD:throw_bad_alloc.obj
 0002:00011bec       $unwind$?what@exception@std@@UEBAPEBDXZ 0000000180073bec     MSVCRTD:throw_bad_alloc.obj
 0002:00011bf4       $unwind$??_Gexception@std@@UEAAPEAXI@Z 0000000180073bf4     MSVCRTD:throw_bad_alloc.obj
 0002:00011bfc       $unwind$??0bad_alloc@std@@QEAA@XZ 0000000180073bfc     MSVCRTD:throw_bad_alloc.obj
 0002:00011c04       $unwind$??0bad_alloc@std@@AEAA@QEBD@Z 0000000180073c04     MSVCRTD:throw_bad_alloc.obj
 0002:00011c0c       $unwind$??1bad_alloc@std@@UEAA@XZ 0000000180073c0c     MSVCRTD:throw_bad_alloc.obj
 0002:00011c14       $unwind$??0bad_alloc@std@@QEAA@AEBV01@@Z 0000000180073c14     MSVCRTD:throw_bad_alloc.obj
 0002:00011c1c       $unwind$??_Gbad_alloc@std@@UEAAPEAXI@Z 0000000180073c1c     MSVCRTD:throw_bad_alloc.obj
 0002:00011c24       $unwind$??0bad_array_new_length@std@@QEAA@XZ 0000000180073c24     MSVCRTD:throw_bad_alloc.obj
 0002:00011c2c       $unwind$??1bad_array_new_length@std@@UEAA@XZ 0000000180073c2c     MSVCRTD:throw_bad_alloc.obj
 0002:00011c34       $unwind$??0bad_array_new_length@std@@QEAA@AEBV01@@Z 0000000180073c34     MSVCRTD:throw_bad_alloc.obj
 0002:00011c3c       $unwind$??_Gbad_array_new_length@std@@UEAAPEAXI@Z 0000000180073c3c     MSVCRTD:throw_bad_alloc.obj
 0002:00011c44       $unwind$?__scrt_throw_std_bad_alloc@@YAXXZ 0000000180073c44     MSVCRTD:throw_bad_alloc.obj
 0002:00011c4c       $unwind$?__scrt_throw_std_bad_array_new_length@@YAXXZ 0000000180073c4c     MSVCRTD:throw_bad_alloc.obj
 0002:00011c54       $unwind$__security_init_cookie 0000000180073c54     MSVCRTD:gs_support.obj
 0002:00011c5c       $unwind$__get_entropy      0000000180073c5c     MSVCRTD:gs_support.obj
 0002:00011c64       $unwind$DllMain            0000000180073c64     MSVCRTD:dll_dllmain_stub.obj
 0002:00011c6c       $unwind$?__scrt_initialize_type_info@@YAXXZ 0000000180073c6c     MSVCRTD:tncleanup.obj
 0002:00011c74       $unwind$?__scrt_uninitialize_type_info@@YAXXZ 0000000180073c74     MSVCRTD:tncleanup.obj
 0002:00011c7c       $unwind$__scrt_initialize_default_local_stdio_options 0000000180073c7c     MSVCRTD:default_local_stdio_options.obj
 0002:00011c84       $unwind$atexit             0000000180073c84     MSVCRTD:utility.obj
 0002:00011c8c       $unwind$_onexit            0000000180073c8c     MSVCRTD:utility.obj
 0002:00011c94       $unwind$at_quick_exit      0000000180073c94     MSVCRTD:utility.obj
 0002:00011c9c       $unwind$__scrt_is_nonwritable_in_current_image 0000000180073c9c     MSVCRTD:utility.obj
 0002:00011cbc       $unwind$__scrt_is_nonwritable_in_current_image$filt$0 0000000180073cbc     MSVCRTD:utility.obj
 0002:00011cc4       $unwind$__scrt_acquire_startup_lock 0000000180073cc4     MSVCRTD:utility.obj
 0002:00011ccc       $unwind$__scrt_release_startup_lock 0000000180073ccc     MSVCRTD:utility.obj
 0002:00011cd4       $unwind$__scrt_initialize_crt 0000000180073cd4     MSVCRTD:utility.obj
 0002:00011cdc       $unwind$__scrt_uninitialize_crt 0000000180073cdc     MSVCRTD:utility.obj
 0002:00011ce4       $unwind$__scrt_initialize_onexit_tables 0000000180073ce4     MSVCRTD:utility.obj
 0002:00011cf0       $unwind$__scrt_dllmain_exception_filter 0000000180073cf0     MSVCRTD:utility.obj
 0002:00011cf8       $unwind$__scrt_dllmain_before_initialize_c 0000000180073cf8     MSVCRTD:utility.obj
 0002:00011d00       $unwind$__scrt_dllmain_after_initialize_c 0000000180073d00     MSVCRTD:utility.obj
 0002:00011d08       $unwind$__scrt_dllmain_uninitialize_c 0000000180073d08     MSVCRTD:utility.obj
 0002:00011d10       $unwind$__scrt_dllmain_uninitialize_critical 0000000180073d10     MSVCRTD:utility.obj
 0002:00011d18       $unwind$__scrt_dllmain_crt_thread_attach 0000000180073d18     MSVCRTD:utility.obj
 0002:00011d20       $unwind$__scrt_dllmain_crt_thread_detach 0000000180073d20     MSVCRTD:utility.obj
 0002:00011d28       $unwind$?configure_argv@__scrt_narrow_argv_policy@@SAHXZ 0000000180073d28     MSVCRTD:utility.obj
 0002:00011d30       $unwind$?initialize_environment@__scrt_narrow_environment_policy@@SAHXZ 0000000180073d30     MSVCRTD:utility.obj
 0002:00011d38       $unwind$?is_potentially_valid_image_base@@YA_NQEAX@Z 0000000180073d38     MSVCRTD:utility.obj
 0002:00011d40       $unwind$?find_pe_section@@YAPEAU_IMAGE_SECTION_HEADER@@QEAE_K@Z 0000000180073d40     MSVCRTD:utility.obj
 0002:00011d48       $unwind$__scrt_get_show_window_mode 0000000180073d48     MSVCRTD:utility_desktop.obj
 0002:00011d54       $unwind$__scrt_is_managed_app 0000000180073d54     MSVCRTD:utility_desktop.obj
 0002:00011d5c       $unwind$__scrt_initialize_mta 0000000180073d5c     MSVCRTD:utility_desktop.obj
 0002:00011d64       $unwind$__scrt_set_unhandled_exception_filter 0000000180073d64     MSVCRTD:utility_desktop.obj
 0002:00011d6c       $unwind$__scrt_fastfail    0000000180073d6c     MSVCRTD:utility_desktop.obj
 0002:00011d78       $unwind$__scrt_unhandled_exception_filter 0000000180073d78     MSVCRTD:utility_desktop.obj
 0002:00011d80       $unwind$_RTC_Initialize    0000000180073d80     MSVCRTD:initsect.obj
 0002:00011d8c       $unwind$_RTC_Terminate     0000000180073d8c     MSVCRTD:initsect.obj
 0002:00011d98       $xdatasym                  0000000180073d98     MSVCRTD:guard_dispatch.obj
 0002:00011da0       $xdatasym                  0000000180073da0     MSVCRTD:guard_xfg_dispatch.obj
 0002:00011da4       $unwind$__isa_available_init 0000000180073da4     MSVCRTD:cpu_disp.obj
 0002:00011db4       $unwind$__scrt_is_ucrt_dll_in_use 0000000180073db4     MSVCRTD:ucrt_detection.obj
 0002:00011eb0       .edata                     0000000180073eb0     OpenH264.exp
 0002:00011ed8       rgpv                       0000000180073ed8     OpenH264.exp
 0002:00011f04       rgszName                   0000000180073f04     OpenH264.exp
 0002:00011f30       rgwOrd                     0000000180073f30     OpenH264.exp
 0002:00011f46       szName                     0000000180073f46     OpenH264.exp
 0002:00011f53       $N00001                    0000000180073f53     OpenH264.exp
 0002:00011fb1       $N00002                    0000000180073fb1     OpenH264.exp
 0002:00012004       $N00003                    0000000180074004     OpenH264.exp
 0002:00012055       $N00004                    0000000180074055     OpenH264.exp
 0002:000120b9       $N00005                    00000001800740b9     OpenH264.exp
 0002:00012112       $N00006                    0000000180074112     OpenH264.exp
 0002:00012151       $N00007                    0000000180074151     OpenH264.exp
 0002:00012194       $N00008                    0000000180074194     OpenH264.exp
 0002:000121d3       $N00009                    00000001800741d3     OpenH264.exp
 0002:000121ff       $N00010                    00000001800741ff     OpenH264.exp
 0002:00012211       $N00011                    0000000180074211     OpenH264.exp
 0002:000126d8       .idata$6                   00000001800746d8     kernel32:KERNEL32.dll
 0002:00012852       .idata$6                   0000000180074852     vcruntimed:VCRUNTIME140D.dll
 0002:00012864       .idata$6                   0000000180074864     vcruntimed:VCRUNTIME140_1D.dll
 0002:00012aec       .idata$6                   0000000180074aec     ucrtd:ucrtbased.dll
 0003:00000228       ?iMtimeFreq@?1??WelsTime@@9@4_JA 0000000180075228     welsDecoderExt.obj
 0003:00000234       ?init@?1??_RTC_InitBase@@9@4_NA 0000000180075234     MSVCRTD:init.obj
 0003:00000240       GS_ExceptionRecord         0000000180075240     MSVCRTD:gs_report.obj
 0003:000002e0       GS_ContextRecord           00000001800752e0     MSVCRTD:gs_report.obj
 0003:000007b0       ?__proc_attached@@3HA      00000001800757b0     MSVCRTD:dll_dllmain.obj
 0003:000007b8       ?_RTC_ErrorReportFunc@@3P6AHHPEBDH00ZZEA 00000001800757b8     MSVCRTD:userapi.obj
 0003:000007c0       ?_RTC_ErrorReportFuncW@@3P6AHHPEB_WH00ZZEA 00000001800757c0     MSVCRTD:userapi.obj
 0003:000007c8       ?mspdb@@3PEAUHINSTANCE__@@EA 00000001800757c8     MSVCRTD:pdblkup.obj
 0003:000007d0       ?alreadyTried@?1??GetPdbDll@@YAPEAUHINSTANCE__@@XZ@4_NA 00000001800757d0     MSVCRTD:pdblkup.obj
 0003:000007d1       ?PDBOK@?1??_RTC_GetSrcLine@@YAHPEAEPEA_WKPEAH1K@Z@4_NA 00000001800757d1     MSVCRTD:pdblkup.obj
 0003:00000808       ?is_initialized_as_dll@@3_NA 0000000180075808     MSVCRTD:utility.obj
 0003:00000809       ?module_local_atexit_table_initialized@@3_NA 0000000180075809     MSVCRTD:utility.obj
 0003:00000810       ?module_local_atexit_table@@3U_onexit_table_t@@A 0000000180075810     MSVCRTD:utility.obj
 0003:00000828       ?module_local_at_quick_exit_table@@3U_onexit_table_t@@A 0000000180075828     MSVCRTD:utility.obj
 0005:00000000       __741AE07E_corecrt_math@h  0000000180078000     common_tables.obj
 0005:00000001       __1FEB9909_corecrt_memcpy_s@h 0000000180078001     common_tables.obj
 0005:00000002       __A751F051_corecrt_memory@h 0000000180078002     common_tables.obj
 0005:00000003       __9200769A_corecrt_wstring@h 0000000180078003     common_tables.obj
 0005:00000004       __32E5F013_string@h        0000000180078004     common_tables.obj
 0005:00000005       __52E83662_macros@h        0000000180078005     common_tables.obj
 0005:00000006       __741AE07E_corecrt_math@h  0000000180078006     copy_mb.obj
 0005:00000007       __1FEB9909_corecrt_memcpy_s@h 0000000180078007     copy_mb.obj
 0005:00000008       __A751F051_corecrt_memory@h 0000000180078008     copy_mb.obj
 0005:00000009       __9200769A_corecrt_wstring@h 0000000180078009     copy_mb.obj
 0005:0000000a       __32E5F013_string@h        000000018007800a     copy_mb.obj
 0005:0000000b       __52E83662_macros@h        000000018007800b     copy_mb.obj
 0005:0000000c       __0044DBCF_copy_mb@cpp     000000018007800c     copy_mb.obj
 0005:0000000d       __1FEB9909_corecrt_memcpy_s@h 000000018007800d     cpu.obj
 0005:0000000e       __A751F051_corecrt_memory@h 000000018007800e     cpu.obj
 0005:0000000f       __9200769A_corecrt_wstring@h 000000018007800f     cpu.obj
 0005:00000010       __32E5F013_string@h        0000000180078010     cpu.obj
 0005:00000011       __A2143F22_corecrt_stdio_config@h 0000000180078011     cpu.obj
 0005:00000012       __829E1958_corecrt_wstdio@h 0000000180078012     cpu.obj
 0005:00000013       __6DFAE8B8_stdio@h         0000000180078013     cpu.obj
 0005:00000014       __A93507FD_cpu@cpp         0000000180078014     cpu.obj
 0005:00000015       __1FEB9909_corecrt_memcpy_s@h 0000000180078015     crt_util_safe_x.obj
 0005:00000016       __A751F051_corecrt_memory@h 0000000180078016     crt_util_safe_x.obj
 0005:00000017       __9200769A_corecrt_wstring@h 0000000180078017     crt_util_safe_x.obj
 0005:00000018       __32E5F013_string@h        0000000180078018     crt_util_safe_x.obj
 0005:00000019       __B49664B7_stdlib@h        0000000180078019     crt_util_safe_x.obj
 0005:0000001a       __741AE07E_corecrt_math@h  000000018007801a     crt_util_safe_x.obj
 0005:0000001b       __1157D6BA_corecrt_wtime@h 000000018007801b     crt_util_safe_x.obj
 0005:0000001c       __A0B61CF9_time@h          000000018007801c     crt_util_safe_x.obj
 0005:0000001d       __B2D2BA86_ctype@h         000000018007801d     crt_util_safe_x.obj
 0005:0000001e       __79C7FC57_basetsd@h       000000018007801e     crt_util_safe_x.obj
 0005:0000001f       __D545DD43_guiddef@h       000000018007801f     crt_util_safe_x.obj
 0005:00000020       __D5DDFBF3_winnt@h         0000000180078020     crt_util_safe_x.obj
 0005:00000021       __439612F0_processthreadsapi@h 0000000180078021     crt_util_safe_x.obj
 0005:00000022       __5733279A_memoryapi@h     0000000180078022     crt_util_safe_x.obj
 0005:00000023       __D4435474_winerror@h      0000000180078023     crt_util_safe_x.obj
 0005:00000024       __B3ED30D4_winbase@h       0000000180078024     crt_util_safe_x.obj
 0005:00000025       __DB057BA3_winuser@h       0000000180078025     crt_util_safe_x.obj
 0005:00000026       __A7113148_winioctl@h      0000000180078026     crt_util_safe_x.obj
 0005:00000027       __EC5BC72C_propidl@h       0000000180078027     crt_util_safe_x.obj
 0005:00000028       __6DA674A0_oleauto@h       0000000180078028     crt_util_safe_x.obj
 0005:00000029       __A118E6DC_stralign@h      0000000180078029     crt_util_safe_x.obj
 0005:0000002a       __E2B48F07_timeb@h         000000018007802a     crt_util_safe_x.obj
 0005:0000002b       __52E83662_macros@h        000000018007802b     crt_util_safe_x.obj
 0005:0000002c       __A2143F22_corecrt_stdio_config@h 000000018007802c     crt_util_safe_x.obj
 0005:0000002d       __829E1958_corecrt_wstdio@h 000000018007802d     crt_util_safe_x.obj
 0005:0000002e       __6DFAE8B8_stdio@h         000000018007802e     crt_util_safe_x.obj
 0005:0000002f       __9450B095_crt_util_safe_x@cpp 000000018007802f     crt_util_safe_x.obj
 0005:00000030       __741AE07E_corecrt_math@h  0000000180078030     deblocking_common.obj
 0005:00000031       __1FEB9909_corecrt_memcpy_s@h 0000000180078031     deblocking_common.obj
 0005:00000032       __A751F051_corecrt_memory@h 0000000180078032     deblocking_common.obj
 0005:00000033       __9200769A_corecrt_wstring@h 0000000180078033     deblocking_common.obj
 0005:00000034       __32E5F013_string@h        0000000180078034     deblocking_common.obj
 0005:00000035       __52E83662_macros@h        0000000180078035     deblocking_common.obj
 0005:00000036       __F2B1D087_deblocking_common@cpp 0000000180078036     deblocking_common.obj
 0005:00000037       __1FEB9909_corecrt_memcpy_s@h 0000000180078037     expand_pic.obj
 0005:00000038       __A751F051_corecrt_memory@h 0000000180078038     expand_pic.obj
 0005:00000039       __9200769A_corecrt_wstring@h 0000000180078039     expand_pic.obj
 0005:0000003a       __32E5F013_string@h        000000018007803a     expand_pic.obj
 0005:0000003b       __721FC697_expand_pic@cpp  000000018007803b     expand_pic.obj
 0005:0000003c       __1FEB9909_corecrt_memcpy_s@h 000000018007803c     intra_pred_common.obj
 0005:0000003d       __A751F051_corecrt_memory@h 000000018007803d     intra_pred_common.obj
 0005:0000003e       __9200769A_corecrt_wstring@h 000000018007803e     intra_pred_common.obj
 0005:0000003f       __32E5F013_string@h        000000018007803f     intra_pred_common.obj
 0005:00000040       __E55786FA_intra_pred_common@cpp 0000000180078040     intra_pred_common.obj
 0005:00000041       __1FEB9909_corecrt_memcpy_s@h 0000000180078041     mc.obj
 0005:00000042       __A751F051_corecrt_memory@h 0000000180078042     mc.obj
 0005:00000043       __9200769A_corecrt_wstring@h 0000000180078043     mc.obj
 0005:00000044       __32E5F013_string@h        0000000180078044     mc.obj
 0005:00000045       __741AE07E_corecrt_math@h  0000000180078045     mc.obj
 0005:00000046       __52E83662_macros@h        0000000180078046     mc.obj
 0005:00000047       __9142F51C_mc@cpp          0000000180078047     mc.obj
 0005:00000048       __B49664B7_stdlib@h        0000000180078048     memory_align.obj
 0005:00000049       __1FEB9909_corecrt_memcpy_s@h 0000000180078049     memory_align.obj
 0005:0000004a       __A751F051_corecrt_memory@h 000000018007804a     memory_align.obj
 0005:0000004b       __9200769A_corecrt_wstring@h 000000018007804b     memory_align.obj
 0005:0000004c       __32E5F013_string@h        000000018007804c     memory_align.obj
 0005:0000004d       __741AE07E_corecrt_math@h  000000018007804d     memory_align.obj
 0005:0000004e       __52E83662_macros@h        000000018007804e     memory_align.obj
 0005:0000004f       __AE9A07EA_memory_align@h  000000018007804f     memory_align.obj
 0005:00000050       __0DC2E702_memory_align@cpp 0000000180078050     memory_align.obj
 0005:00000051       __741AE07E_corecrt_math@h  0000000180078051     sad_common.obj
 0005:00000052       __1FEB9909_corecrt_memcpy_s@h 0000000180078052     sad_common.obj
 0005:00000053       __A751F051_corecrt_memory@h 0000000180078053     sad_common.obj
 0005:00000054       __9200769A_corecrt_wstring@h 0000000180078054     sad_common.obj
 0005:00000055       __32E5F013_string@h        0000000180078055     sad_common.obj
 0005:00000056       __52E83662_macros@h        0000000180078056     sad_common.obj
 0005:00000057       __327C3029_sad_common@cpp  0000000180078057     sad_common.obj
 0005:00000058       __1FEB9909_corecrt_memcpy_s@h 0000000180078058     utils.obj
 0005:00000059       __A751F051_corecrt_memory@h 0000000180078059     utils.obj
 0005:0000005a       __9200769A_corecrt_wstring@h 000000018007805a     utils.obj
 0005:0000005b       __32E5F013_string@h        000000018007805b     utils.obj
 0005:0000005c       __B49664B7_stdlib@h        000000018007805c     utils.obj
 0005:0000005d       __A2143F22_corecrt_stdio_config@h 000000018007805d     utils.obj
 0005:0000005e       __829E1958_corecrt_wstdio@h 000000018007805e     utils.obj
 0005:0000005f       __6DFAE8B8_stdio@h         000000018007805f     utils.obj
 0005:00000060       __741AE07E_corecrt_math@h  0000000180078060     utils.obj
 0005:00000061       __1157D6BA_corecrt_wtime@h 0000000180078061     utils.obj
 0005:00000062       __A0B61CF9_time@h          0000000180078062     utils.obj
 0005:00000063       __B2D2BA86_ctype@h         0000000180078063     utils.obj
 0005:00000064       __79C7FC57_basetsd@h       0000000180078064     utils.obj
 0005:00000065       __D545DD43_guiddef@h       0000000180078065     utils.obj
 0005:00000066       __D5DDFBF3_winnt@h         0000000180078066     utils.obj
 0005:00000067       __439612F0_processthreadsapi@h 0000000180078067     utils.obj
 0005:00000068       __5733279A_memoryapi@h     0000000180078068     utils.obj
 0005:00000069       __D4435474_winerror@h      0000000180078069     utils.obj
 0005:0000006a       __B3ED30D4_winbase@h       000000018007806a     utils.obj
 0005:0000006b       __DB057BA3_winuser@h       000000018007806b     utils.obj
 0005:0000006c       __A7113148_winioctl@h      000000018007806c     utils.obj
 0005:0000006d       __EC5BC72C_propidl@h       000000018007806d     utils.obj
 0005:0000006e       __6DA674A0_oleauto@h       000000018007806e     utils.obj
 0005:0000006f       __A118E6DC_stralign@h      000000018007806f     utils.obj
 0005:00000070       __E2B48F07_timeb@h         0000000180078070     utils.obj
 0005:00000071       __AC60314A_utils@cpp       0000000180078071     utils.obj
 0005:00000072       __B2D2BA86_ctype@h         0000000180078072     welsCodecTrace.obj
 0005:00000073       __79C7FC57_basetsd@h       0000000180078073     welsCodecTrace.obj
 0005:00000074       __1FEB9909_corecrt_memcpy_s@h 0000000180078074     welsCodecTrace.obj
 0005:00000075       __A751F051_corecrt_memory@h 0000000180078075     welsCodecTrace.obj
 0005:00000076       __9200769A_corecrt_wstring@h 0000000180078076     welsCodecTrace.obj
 0005:00000077       __32E5F013_string@h        0000000180078077     welsCodecTrace.obj
 0005:00000078       __D545DD43_guiddef@h       0000000180078078     welsCodecTrace.obj
 0005:00000079       __D5DDFBF3_winnt@h         0000000180078079     welsCodecTrace.obj
 0005:0000007a       __439612F0_processthreadsapi@h 000000018007807a     welsCodecTrace.obj
 0005:0000007b       __5733279A_memoryapi@h     000000018007807b     welsCodecTrace.obj
 0005:0000007c       __D4435474_winerror@h      000000018007807c     welsCodecTrace.obj
 0005:0000007d       __B3ED30D4_winbase@h       000000018007807d     welsCodecTrace.obj
 0005:0000007e       __DB057BA3_winuser@h       000000018007807e     welsCodecTrace.obj
 0005:0000007f       __A7113148_winioctl@h      000000018007807f     welsCodecTrace.obj
 0005:00000080       __B49664B7_stdlib@h        0000000180078080     welsCodecTrace.obj
 0005:00000081       __EC5BC72C_propidl@h       0000000180078081     welsCodecTrace.obj
 0005:00000082       __6DA674A0_oleauto@h       0000000180078082     welsCodecTrace.obj
 0005:00000083       __A118E6DC_stralign@h      0000000180078083     welsCodecTrace.obj
 0005:00000084       __A2143F22_corecrt_stdio_config@h 0000000180078084     welsCodecTrace.obj
 0005:00000085       __C6E16F6F_corecrt_wconio@h 0000000180078085     welsCodecTrace.obj
 0005:00000086       __6D390390_corecrt_wio@h   0000000180078086     welsCodecTrace.obj
 0005:00000087       __829E1958_corecrt_wstdio@h 0000000180078087     welsCodecTrace.obj
 0005:00000088       __1157D6BA_corecrt_wtime@h 0000000180078088     welsCodecTrace.obj
 0005:00000089       __1DC1E279_stat@h          0000000180078089     welsCodecTrace.obj
 0005:0000008a       __93DC0B45_wchar@h         000000018007808a     welsCodecTrace.obj
 0005:0000008b       __A23411D8_tchar@h         000000018007808b     welsCodecTrace.obj
 0005:0000008c       __6DFAE8B8_stdio@h         000000018007808c     welsCodecTrace.obj
 0005:0000008d       __741AE07E_corecrt_math@h  000000018007808d     welsCodecTrace.obj
 0005:0000008e       __A0B61CF9_time@h          000000018007808e     welsCodecTrace.obj
 0005:0000008f       __E2B48F07_timeb@h         000000018007808f     welsCodecTrace.obj
 0005:00000090       __670FD895_codec_api@h     0000000180078090     welsCodecTrace.obj
 0005:00000091       __77F427A8_welsCodecTrace@h 0000000180078091     welsCodecTrace.obj
 0005:00000092       __F2B0A9B5_welsCodecTrace@cpp 0000000180078092     welsCodecTrace.obj
 0005:00000093       __B2D2BA86_ctype@h         0000000180078093     WelsThreadLib.obj
 0005:00000094       __79C7FC57_basetsd@h       0000000180078094     WelsThreadLib.obj
 0005:00000095       __1FEB9909_corecrt_memcpy_s@h 0000000180078095     WelsThreadLib.obj
 0005:00000096       __A751F051_corecrt_memory@h 0000000180078096     WelsThreadLib.obj
 0005:00000097       __9200769A_corecrt_wstring@h 0000000180078097     WelsThreadLib.obj
 0005:00000098       __32E5F013_string@h        0000000180078098     WelsThreadLib.obj
 0005:00000099       __D545DD43_guiddef@h       0000000180078099     WelsThreadLib.obj
 0005:0000009a       __D5DDFBF3_winnt@h         000000018007809a     WelsThreadLib.obj
 0005:0000009b       __439612F0_processthreadsapi@h 000000018007809b     WelsThreadLib.obj
 0005:0000009c       __5733279A_memoryapi@h     000000018007809c     WelsThreadLib.obj
 0005:0000009d       __D4435474_winerror@h      000000018007809d     WelsThreadLib.obj
 0005:0000009e       __B3ED30D4_winbase@h       000000018007809e     WelsThreadLib.obj
 0005:0000009f       __DB057BA3_winuser@h       000000018007809f     WelsThreadLib.obj
 0005:000000a0       __A7113148_winioctl@h      00000001800780a0     WelsThreadLib.obj
 0005:000000a1       __B49664B7_stdlib@h        00000001800780a1     WelsThreadLib.obj
 0005:000000a2       __EC5BC72C_propidl@h       00000001800780a2     WelsThreadLib.obj
 0005:000000a3       __6DA674A0_oleauto@h       00000001800780a3     WelsThreadLib.obj
 0005:000000a4       __A118E6DC_stralign@h      00000001800780a4     WelsThreadLib.obj
 0005:000000a5       __A2143F22_corecrt_stdio_config@h 00000001800780a5     WelsThreadLib.obj
 0005:000000a6       __829E1958_corecrt_wstdio@h 00000001800780a6     WelsThreadLib.obj
 0005:000000a7       __6DFAE8B8_stdio@h         00000001800780a7     WelsThreadLib.obj
 0005:000000a8       __D0490048_WelsThreadLib@cpp 00000001800780a8     WelsThreadLib.obj
 0005:000000a9       __741AE07E_corecrt_math@h  00000001800780a9     au_parser.obj
 0005:000000aa       __1FEB9909_corecrt_memcpy_s@h 00000001800780aa     au_parser.obj
 0005:000000ab       __A751F051_corecrt_memory@h 00000001800780ab     au_parser.obj
 0005:000000ac       __9200769A_corecrt_wstring@h 00000001800780ac     au_parser.obj
 0005:000000ad       __32E5F013_string@h        00000001800780ad     au_parser.obj
 0005:000000ae       __52E83662_macros@h        00000001800780ae     au_parser.obj
 0005:000000af       __864C4808_wels_common_basis@h 00000001800780af     au_parser.obj
 0005:000000b0       __451F0960_golomb_common@h 00000001800780b0     au_parser.obj
 0005:000000b1       __DC256DA8_dec_golomb@h    00000001800780b1     au_parser.obj
 0005:000000b2       __DF0DFBA6_vlc_decoder@h   00000001800780b2     au_parser.obj
 0005:000000b3       __B49664B7_stdlib@h        00000001800780b3     au_parser.obj
 0005:000000b4       __A2143F22_corecrt_stdio_config@h 00000001800780b4     au_parser.obj
 0005:000000b5       __829E1958_corecrt_wstdio@h 00000001800780b5     au_parser.obj
 0005:000000b6       __6DFAE8B8_stdio@h         00000001800780b6     au_parser.obj
 0005:000000b7       __1157D6BA_corecrt_wtime@h 00000001800780b7     au_parser.obj
 0005:000000b8       __A0B61CF9_time@h          00000001800780b8     au_parser.obj
 0005:000000b9       __B2D2BA86_ctype@h         00000001800780b9     au_parser.obj
 0005:000000ba       __79C7FC57_basetsd@h       00000001800780ba     au_parser.obj
 0005:000000bb       __D545DD43_guiddef@h       00000001800780bb     au_parser.obj
 0005:000000bc       __D5DDFBF3_winnt@h         00000001800780bc     au_parser.obj
 0005:000000bd       __439612F0_processthreadsapi@h 00000001800780bd     au_parser.obj
 0005:000000be       __5733279A_memoryapi@h     00000001800780be     au_parser.obj
 0005:000000bf       __D4435474_winerror@h      00000001800780bf     au_parser.obj
 0005:000000c0       __B3ED30D4_winbase@h       00000001800780c0     au_parser.obj
 0005:000000c1       __DB057BA3_winuser@h       00000001800780c1     au_parser.obj
 0005:000000c2       __A7113148_winioctl@h      00000001800780c2     au_parser.obj
 0005:000000c3       __EC5BC72C_propidl@h       00000001800780c3     au_parser.obj
 0005:000000c4       __6DA674A0_oleauto@h       00000001800780c4     au_parser.obj
 0005:000000c5       __A118E6DC_stralign@h      00000001800780c5     au_parser.obj
 0005:000000c6       __E2B48F07_timeb@h         00000001800780c6     au_parser.obj
 0005:000000c7       __755F7121_decoder_context@h 00000001800780c7     au_parser.obj
 0005:000000c8       __0C3FF8BD_au_parser@cpp   00000001800780c8     au_parser.obj
 0005:000000c9       __741AE07E_corecrt_math@h  00000001800780c9     bit_stream.obj
 0005:000000ca       __1FEB9909_corecrt_memcpy_s@h 00000001800780ca     bit_stream.obj
 0005:000000cb       __A751F051_corecrt_memory@h 00000001800780cb     bit_stream.obj
 0005:000000cc       __9200769A_corecrt_wstring@h 00000001800780cc     bit_stream.obj
 0005:000000cd       __32E5F013_string@h        00000001800780cd     bit_stream.obj
 0005:000000ce       __52E83662_macros@h        00000001800780ce     bit_stream.obj
 0005:000000cf       __451F0960_golomb_common@h 00000001800780cf     bit_stream.obj
 0005:000000d0       __BA26584C_bit_stream@cpp  00000001800780d0     bit_stream.obj
 0005:000000d1       __741AE07E_corecrt_math@h  00000001800780d1     cabac_decoder.obj
 0005:000000d2       __1FEB9909_corecrt_memcpy_s@h 00000001800780d2     cabac_decoder.obj
 0005:000000d3       __A751F051_corecrt_memory@h 00000001800780d3     cabac_decoder.obj
 0005:000000d4       __9200769A_corecrt_wstring@h 00000001800780d4     cabac_decoder.obj
 0005:000000d5       __32E5F013_string@h        00000001800780d5     cabac_decoder.obj
 0005:000000d6       __52E83662_macros@h        00000001800780d6     cabac_decoder.obj
 0005:000000d7       __864C4808_wels_common_basis@h 00000001800780d7     cabac_decoder.obj
 0005:000000d8       __451F0960_golomb_common@h 00000001800780d8     cabac_decoder.obj
 0005:000000d9       __DC256DA8_dec_golomb@h    00000001800780d9     cabac_decoder.obj
 0005:000000da       __DF0DFBA6_vlc_decoder@h   00000001800780da     cabac_decoder.obj
 0005:000000db       __B49664B7_stdlib@h        00000001800780db     cabac_decoder.obj
 0005:000000dc       __A2143F22_corecrt_stdio_config@h 00000001800780dc     cabac_decoder.obj
 0005:000000dd       __829E1958_corecrt_wstdio@h 00000001800780dd     cabac_decoder.obj
 0005:000000de       __6DFAE8B8_stdio@h         00000001800780de     cabac_decoder.obj
 0005:000000df       __1157D6BA_corecrt_wtime@h 00000001800780df     cabac_decoder.obj
 0005:000000e0       __A0B61CF9_time@h          00000001800780e0     cabac_decoder.obj
 0005:000000e1       __B2D2BA86_ctype@h         00000001800780e1     cabac_decoder.obj
 0005:000000e2       __79C7FC57_basetsd@h       00000001800780e2     cabac_decoder.obj
 0005:000000e3       __D545DD43_guiddef@h       00000001800780e3     cabac_decoder.obj
 0005:000000e4       __D5DDFBF3_winnt@h         00000001800780e4     cabac_decoder.obj
 0005:000000e5       __439612F0_processthreadsapi@h 00000001800780e5     cabac_decoder.obj
 0005:000000e6       __5733279A_memoryapi@h     00000001800780e6     cabac_decoder.obj
 0005:000000e7       __D4435474_winerror@h      00000001800780e7     cabac_decoder.obj
 0005:000000e8       __B3ED30D4_winbase@h       00000001800780e8     cabac_decoder.obj
 0005:000000e9       __DB057BA3_winuser@h       00000001800780e9     cabac_decoder.obj
 0005:000000ea       __A7113148_winioctl@h      00000001800780ea     cabac_decoder.obj
 0005:000000eb       __EC5BC72C_propidl@h       00000001800780eb     cabac_decoder.obj
 0005:000000ec       __6DA674A0_oleauto@h       00000001800780ec     cabac_decoder.obj
 0005:000000ed       __A118E6DC_stralign@h      00000001800780ed     cabac_decoder.obj
 0005:000000ee       __E2B48F07_timeb@h         00000001800780ee     cabac_decoder.obj
 0005:000000ef       __755F7121_decoder_context@h 00000001800780ef     cabac_decoder.obj
 0005:000000f0       __8E204F0D_cabac_decoder@cpp 00000001800780f0     cabac_decoder.obj
 0005:000000f1       __741AE07E_corecrt_math@h  00000001800780f1     deblocking.obj
 0005:000000f2       __1FEB9909_corecrt_memcpy_s@h 00000001800780f2     deblocking.obj
 0005:000000f3       __A751F051_corecrt_memory@h 00000001800780f3     deblocking.obj
 0005:000000f4       __9200769A_corecrt_wstring@h 00000001800780f4     deblocking.obj
 0005:000000f5       __32E5F013_string@h        00000001800780f5     deblocking.obj
 0005:000000f6       __52E83662_macros@h        00000001800780f6     deblocking.obj
 0005:000000f7       __864C4808_wels_common_basis@h 00000001800780f7     deblocking.obj
 0005:000000f8       __451F0960_golomb_common@h 00000001800780f8     deblocking.obj
 0005:000000f9       __DC256DA8_dec_golomb@h    00000001800780f9     deblocking.obj
 0005:000000fa       __DF0DFBA6_vlc_decoder@h   00000001800780fa     deblocking.obj
 0005:000000fb       __B49664B7_stdlib@h        00000001800780fb     deblocking.obj
 0005:000000fc       __A2143F22_corecrt_stdio_config@h 00000001800780fc     deblocking.obj
 0005:000000fd       __829E1958_corecrt_wstdio@h 00000001800780fd     deblocking.obj
 0005:000000fe       __6DFAE8B8_stdio@h         00000001800780fe     deblocking.obj
 0005:000000ff       __1157D6BA_corecrt_wtime@h 00000001800780ff     deblocking.obj
 0005:00000100       __A0B61CF9_time@h          0000000180078100     deblocking.obj
 0005:00000101       __B2D2BA86_ctype@h         0000000180078101     deblocking.obj
 0005:00000102       __79C7FC57_basetsd@h       0000000180078102     deblocking.obj
 0005:00000103       __D545DD43_guiddef@h       0000000180078103     deblocking.obj
 0005:00000104       __D5DDFBF3_winnt@h         0000000180078104     deblocking.obj
 0005:00000105       __439612F0_processthreadsapi@h 0000000180078105     deblocking.obj
 0005:00000106       __5733279A_memoryapi@h     0000000180078106     deblocking.obj
 0005:00000107       __D4435474_winerror@h      0000000180078107     deblocking.obj
 0005:00000108       __B3ED30D4_winbase@h       0000000180078108     deblocking.obj
 0005:00000109       __DB057BA3_winuser@h       0000000180078109     deblocking.obj
 0005:0000010a       __A7113148_winioctl@h      000000018007810a     deblocking.obj
 0005:0000010b       __EC5BC72C_propidl@h       000000018007810b     deblocking.obj
 0005:0000010c       __6DA674A0_oleauto@h       000000018007810c     deblocking.obj
 0005:0000010d       __A118E6DC_stralign@h      000000018007810d     deblocking.obj
 0005:0000010e       __E2B48F07_timeb@h         000000018007810e     deblocking.obj
 0005:0000010f       __755F7121_decoder_context@h 000000018007810f     deblocking.obj
 0005:00000110       __60726BDE_deblocking@cpp  0000000180078110     deblocking.obj
 0005:00000111       __741AE07E_corecrt_math@h  0000000180078111     decoder.obj
 0005:00000112       __1FEB9909_corecrt_memcpy_s@h 0000000180078112     decoder.obj
 0005:00000113       __A751F051_corecrt_memory@h 0000000180078113     decoder.obj
 0005:00000114       __9200769A_corecrt_wstring@h 0000000180078114     decoder.obj
 0005:00000115       __32E5F013_string@h        0000000180078115     decoder.obj
 0005:00000116       __52E83662_macros@h        0000000180078116     decoder.obj
 0005:00000117       __864C4808_wels_common_basis@h 0000000180078117     decoder.obj
 0005:00000118       __451F0960_golomb_common@h 0000000180078118     decoder.obj
 0005:00000119       __DC256DA8_dec_golomb@h    0000000180078119     decoder.obj
 0005:0000011a       __DF0DFBA6_vlc_decoder@h   000000018007811a     decoder.obj
 0005:0000011b       __B49664B7_stdlib@h        000000018007811b     decoder.obj
 0005:0000011c       __A2143F22_corecrt_stdio_config@h 000000018007811c     decoder.obj
 0005:0000011d       __829E1958_corecrt_wstdio@h 000000018007811d     decoder.obj
 0005:0000011e       __6DFAE8B8_stdio@h         000000018007811e     decoder.obj
 0005:0000011f       __1157D6BA_corecrt_wtime@h 000000018007811f     decoder.obj
 0005:00000120       __A0B61CF9_time@h          0000000180078120     decoder.obj
 0005:00000121       __B2D2BA86_ctype@h         0000000180078121     decoder.obj
 0005:00000122       __79C7FC57_basetsd@h       0000000180078122     decoder.obj
 0005:00000123       __D545DD43_guiddef@h       0000000180078123     decoder.obj
 0005:00000124       __D5DDFBF3_winnt@h         0000000180078124     decoder.obj
 0005:00000125       __439612F0_processthreadsapi@h 0000000180078125     decoder.obj
 0005:00000126       __5733279A_memoryapi@h     0000000180078126     decoder.obj
 0005:00000127       __D4435474_winerror@h      0000000180078127     decoder.obj
 0005:00000128       __B3ED30D4_winbase@h       0000000180078128     decoder.obj
 0005:00000129       __DB057BA3_winuser@h       0000000180078129     decoder.obj
 0005:0000012a       __A7113148_winioctl@h      000000018007812a     decoder.obj
 0005:0000012b       __EC5BC72C_propidl@h       000000018007812b     decoder.obj
 0005:0000012c       __6DA674A0_oleauto@h       000000018007812c     decoder.obj
 0005:0000012d       __A118E6DC_stralign@h      000000018007812d     decoder.obj
 0005:0000012e       __E2B48F07_timeb@h         000000018007812e     decoder.obj
 0005:0000012f       __755F7121_decoder_context@h 000000018007812f     decoder.obj
 0005:00000130       __8B357549_decoder@cpp     0000000180078130     decoder.obj
 0005:00000131       __741AE07E_corecrt_math@h  0000000180078131     decoder_core.obj
 0005:00000132       __1FEB9909_corecrt_memcpy_s@h 0000000180078132     decoder_core.obj
 0005:00000133       __A751F051_corecrt_memory@h 0000000180078133     decoder_core.obj
 0005:00000134       __9200769A_corecrt_wstring@h 0000000180078134     decoder_core.obj
 0005:00000135       __32E5F013_string@h        0000000180078135     decoder_core.obj
 0005:00000136       __52E83662_macros@h        0000000180078136     decoder_core.obj
 0005:00000137       __864C4808_wels_common_basis@h 0000000180078137     decoder_core.obj
 0005:00000138       __451F0960_golomb_common@h 0000000180078138     decoder_core.obj
 0005:00000139       __DC256DA8_dec_golomb@h    0000000180078139     decoder_core.obj
 0005:0000013a       __DF0DFBA6_vlc_decoder@h   000000018007813a     decoder_core.obj
 0005:0000013b       __B49664B7_stdlib@h        000000018007813b     decoder_core.obj
 0005:0000013c       __A2143F22_corecrt_stdio_config@h 000000018007813c     decoder_core.obj
 0005:0000013d       __829E1958_corecrt_wstdio@h 000000018007813d     decoder_core.obj
 0005:0000013e       __6DFAE8B8_stdio@h         000000018007813e     decoder_core.obj
 0005:0000013f       __1157D6BA_corecrt_wtime@h 000000018007813f     decoder_core.obj
 0005:00000140       __A0B61CF9_time@h          0000000180078140     decoder_core.obj
 0005:00000141       __B2D2BA86_ctype@h         0000000180078141     decoder_core.obj
 0005:00000142       __79C7FC57_basetsd@h       0000000180078142     decoder_core.obj
 0005:00000143       __D545DD43_guiddef@h       0000000180078143     decoder_core.obj
 0005:00000144       __D5DDFBF3_winnt@h         0000000180078144     decoder_core.obj
 0005:00000145       __439612F0_processthreadsapi@h 0000000180078145     decoder_core.obj
 0005:00000146       __5733279A_memoryapi@h     0000000180078146     decoder_core.obj
 0005:00000147       __D4435474_winerror@h      0000000180078147     decoder_core.obj
 0005:00000148       __B3ED30D4_winbase@h       0000000180078148     decoder_core.obj
 0005:00000149       __DB057BA3_winuser@h       0000000180078149     decoder_core.obj
 0005:0000014a       __A7113148_winioctl@h      000000018007814a     decoder_core.obj
 0005:0000014b       __EC5BC72C_propidl@h       000000018007814b     decoder_core.obj
 0005:0000014c       __6DA674A0_oleauto@h       000000018007814c     decoder_core.obj
 0005:0000014d       __A118E6DC_stralign@h      000000018007814d     decoder_core.obj
 0005:0000014e       __E2B48F07_timeb@h         000000018007814e     decoder_core.obj
 0005:0000014f       __755F7121_decoder_context@h 000000018007814f     decoder_core.obj
 0005:00000150       __ECC7CB54_decoder_core@cpp 0000000180078150     decoder_core.obj
 0005:00000151       __741AE07E_corecrt_math@h  0000000180078151     decoder_data_tables.obj
 0005:00000152       __1FEB9909_corecrt_memcpy_s@h 0000000180078152     decoder_data_tables.obj
 0005:00000153       __A751F051_corecrt_memory@h 0000000180078153     decoder_data_tables.obj
 0005:00000154       __9200769A_corecrt_wstring@h 0000000180078154     decoder_data_tables.obj
 0005:00000155       __32E5F013_string@h        0000000180078155     decoder_data_tables.obj
 0005:00000156       __52E83662_macros@h        0000000180078156     decoder_data_tables.obj
 0005:00000157       __864C4808_wels_common_basis@h 0000000180078157     decoder_data_tables.obj
 0005:00000158       __451F0960_golomb_common@h 0000000180078158     decoder_data_tables.obj
 0005:00000159       __DC256DA8_dec_golomb@h    0000000180078159     decoder_data_tables.obj
 0005:0000015a       __DF0DFBA6_vlc_decoder@h   000000018007815a     decoder_data_tables.obj
 0005:0000015b       __1FEB9909_corecrt_memcpy_s@h 000000018007815b     decode_mb_aux.obj
 0005:0000015c       __A751F051_corecrt_memory@h 000000018007815c     decode_mb_aux.obj
 0005:0000015d       __9200769A_corecrt_wstring@h 000000018007815d     decode_mb_aux.obj
 0005:0000015e       __32E5F013_string@h        000000018007815e     decode_mb_aux.obj
 0005:0000015f       __741AE07E_corecrt_math@h  000000018007815f     decode_mb_aux.obj
 0005:00000160       __52E83662_macros@h        0000000180078160     decode_mb_aux.obj
 0005:00000161       __864C4808_wels_common_basis@h 0000000180078161     decode_mb_aux.obj
 0005:00000162       __1AFAD79B_decode_mb_aux@cpp 0000000180078162     decode_mb_aux.obj
 0005:00000163       __741AE07E_corecrt_math@h  0000000180078163     decode_slice.obj
 0005:00000164       __1FEB9909_corecrt_memcpy_s@h 0000000180078164     decode_slice.obj
 0005:00000165       __A751F051_corecrt_memory@h 0000000180078165     decode_slice.obj
 0005:00000166       __9200769A_corecrt_wstring@h 0000000180078166     decode_slice.obj
 0005:00000167       __32E5F013_string@h        0000000180078167     decode_slice.obj
 0005:00000168       __52E83662_macros@h        0000000180078168     decode_slice.obj
 0005:00000169       __864C4808_wels_common_basis@h 0000000180078169     decode_slice.obj
 0005:0000016a       __451F0960_golomb_common@h 000000018007816a     decode_slice.obj
 0005:0000016b       __DC256DA8_dec_golomb@h    000000018007816b     decode_slice.obj
 0005:0000016c       __DF0DFBA6_vlc_decoder@h   000000018007816c     decode_slice.obj
 0005:0000016d       __B49664B7_stdlib@h        000000018007816d     decode_slice.obj
 0005:0000016e       __A2143F22_corecrt_stdio_config@h 000000018007816e     decode_slice.obj
 0005:0000016f       __829E1958_corecrt_wstdio@h 000000018007816f     decode_slice.obj
 0005:00000170       __6DFAE8B8_stdio@h         0000000180078170     decode_slice.obj
 0005:00000171       __1157D6BA_corecrt_wtime@h 0000000180078171     decode_slice.obj
 0005:00000172       __A0B61CF9_time@h          0000000180078172     decode_slice.obj
 0005:00000173       __B2D2BA86_ctype@h         0000000180078173     decode_slice.obj
 0005:00000174       __79C7FC57_basetsd@h       0000000180078174     decode_slice.obj
 0005:00000175       __D545DD43_guiddef@h       0000000180078175     decode_slice.obj
 0005:00000176       __D5DDFBF3_winnt@h         0000000180078176     decode_slice.obj
 0005:00000177       __439612F0_processthreadsapi@h 0000000180078177     decode_slice.obj
 0005:00000178       __5733279A_memoryapi@h     0000000180078178     decode_slice.obj
 0005:00000179       __D4435474_winerror@h      0000000180078179     decode_slice.obj
 0005:0000017a       __B3ED30D4_winbase@h       000000018007817a     decode_slice.obj
 0005:0000017b       __DB057BA3_winuser@h       000000018007817b     decode_slice.obj
 0005:0000017c       __A7113148_winioctl@h      000000018007817c     decode_slice.obj
 0005:0000017d       __EC5BC72C_propidl@h       000000018007817d     decode_slice.obj
 0005:0000017e       __6DA674A0_oleauto@h       000000018007817e     decode_slice.obj
 0005:0000017f       __A118E6DC_stralign@h      000000018007817f     decode_slice.obj
 0005:00000180       __E2B48F07_timeb@h         0000000180078180     decode_slice.obj
 0005:00000181       __755F7121_decoder_context@h 0000000180078181     decode_slice.obj
 0005:00000182       __40DBC42B_decode_slice@cpp 0000000180078182     decode_slice.obj
 0005:00000183       __741AE07E_corecrt_math@h  0000000180078183     error_concealment.obj
 0005:00000184       __1FEB9909_corecrt_memcpy_s@h 0000000180078184     error_concealment.obj
 0005:00000185       __A751F051_corecrt_memory@h 0000000180078185     error_concealment.obj
 0005:00000186       __9200769A_corecrt_wstring@h 0000000180078186     error_concealment.obj
 0005:00000187       __32E5F013_string@h        0000000180078187     error_concealment.obj
 0005:00000188       __52E83662_macros@h        0000000180078188     error_concealment.obj
 0005:00000189       __864C4808_wels_common_basis@h 0000000180078189     error_concealment.obj
 0005:0000018a       __451F0960_golomb_common@h 000000018007818a     error_concealment.obj
 0005:0000018b       __DC256DA8_dec_golomb@h    000000018007818b     error_concealment.obj
 0005:0000018c       __DF0DFBA6_vlc_decoder@h   000000018007818c     error_concealment.obj
 0005:0000018d       __B49664B7_stdlib@h        000000018007818d     error_concealment.obj
 0005:0000018e       __A2143F22_corecrt_stdio_config@h 000000018007818e     error_concealment.obj
 0005:0000018f       __829E1958_corecrt_wstdio@h 000000018007818f     error_concealment.obj
 0005:00000190       __6DFAE8B8_stdio@h         0000000180078190     error_concealment.obj
 0005:00000191       __1157D6BA_corecrt_wtime@h 0000000180078191     error_concealment.obj
 0005:00000192       __A0B61CF9_time@h          0000000180078192     error_concealment.obj
 0005:00000193       __B2D2BA86_ctype@h         0000000180078193     error_concealment.obj
 0005:00000194       __79C7FC57_basetsd@h       0000000180078194     error_concealment.obj
 0005:00000195       __D545DD43_guiddef@h       0000000180078195     error_concealment.obj
 0005:00000196       __D5DDFBF3_winnt@h         0000000180078196     error_concealment.obj
 0005:00000197       __439612F0_processthreadsapi@h 0000000180078197     error_concealment.obj
 0005:00000198       __5733279A_memoryapi@h     0000000180078198     error_concealment.obj
 0005:00000199       __D4435474_winerror@h      0000000180078199     error_concealment.obj
 0005:0000019a       __B3ED30D4_winbase@h       000000018007819a     error_concealment.obj
 0005:0000019b       __DB057BA3_winuser@h       000000018007819b     error_concealment.obj
 0005:0000019c       __A7113148_winioctl@h      000000018007819c     error_concealment.obj
 0005:0000019d       __EC5BC72C_propidl@h       000000018007819d     error_concealment.obj
 0005:0000019e       __6DA674A0_oleauto@h       000000018007819e     error_concealment.obj
 0005:0000019f       __A118E6DC_stralign@h      000000018007819f     error_concealment.obj
 0005:000001a0       __E2B48F07_timeb@h         00000001800781a0     error_concealment.obj
 0005:000001a1       __755F7121_decoder_context@h 00000001800781a1     error_concealment.obj
 0005:000001a2       __EF4D8EB7_error_concealment@cpp 00000001800781a2     error_concealment.obj
 0005:000001a3       __741AE07E_corecrt_math@h  00000001800781a3     fmo.obj
 0005:000001a4       __1FEB9909_corecrt_memcpy_s@h 00000001800781a4     fmo.obj
 0005:000001a5       __A751F051_corecrt_memory@h 00000001800781a5     fmo.obj
 0005:000001a6       __9200769A_corecrt_wstring@h 00000001800781a6     fmo.obj
 0005:000001a7       __32E5F013_string@h        00000001800781a7     fmo.obj
 0005:000001a8       __52E83662_macros@h        00000001800781a8     fmo.obj
 0005:000001a9       __864C4808_wels_common_basis@h 00000001800781a9     fmo.obj
 0005:000001aa       __406180F5_fmo@cpp         00000001800781aa     fmo.obj
 0005:000001ab       __1FEB9909_corecrt_memcpy_s@h 00000001800781ab     get_intra_predictor.obj
 0005:000001ac       __A751F051_corecrt_memory@h 00000001800781ac     get_intra_predictor.obj
 0005:000001ad       __9200769A_corecrt_wstring@h 00000001800781ad     get_intra_predictor.obj
 0005:000001ae       __32E5F013_string@h        00000001800781ae     get_intra_predictor.obj
 0005:000001af       __741AE07E_corecrt_math@h  00000001800781af     get_intra_predictor.obj
 0005:000001b0       __52E83662_macros@h        00000001800781b0     get_intra_predictor.obj
 0005:000001b1       __5FF78EC9_get_intra_predictor@cpp 00000001800781b1     get_intra_predictor.obj
 0005:000001b2       __741AE07E_corecrt_math@h  00000001800781b2     manage_dec_ref.obj
 0005:000001b3       __1FEB9909_corecrt_memcpy_s@h 00000001800781b3     manage_dec_ref.obj
 0005:000001b4       __A751F051_corecrt_memory@h 00000001800781b4     manage_dec_ref.obj
 0005:000001b5       __9200769A_corecrt_wstring@h 00000001800781b5     manage_dec_ref.obj
 0005:000001b6       __32E5F013_string@h        00000001800781b6     manage_dec_ref.obj
 0005:000001b7       __52E83662_macros@h        00000001800781b7     manage_dec_ref.obj
 0005:000001b8       __864C4808_wels_common_basis@h 00000001800781b8     manage_dec_ref.obj
 0005:000001b9       __451F0960_golomb_common@h 00000001800781b9     manage_dec_ref.obj
 0005:000001ba       __DC256DA8_dec_golomb@h    00000001800781ba     manage_dec_ref.obj
 0005:000001bb       __DF0DFBA6_vlc_decoder@h   00000001800781bb     manage_dec_ref.obj
 0005:000001bc       __B49664B7_stdlib@h        00000001800781bc     manage_dec_ref.obj
 0005:000001bd       __A2143F22_corecrt_stdio_config@h 00000001800781bd     manage_dec_ref.obj
 0005:000001be       __829E1958_corecrt_wstdio@h 00000001800781be     manage_dec_ref.obj
 0005:000001bf       __6DFAE8B8_stdio@h         00000001800781bf     manage_dec_ref.obj
 0005:000001c0       __1157D6BA_corecrt_wtime@h 00000001800781c0     manage_dec_ref.obj
 0005:000001c1       __A0B61CF9_time@h          00000001800781c1     manage_dec_ref.obj
 0005:000001c2       __B2D2BA86_ctype@h         00000001800781c2     manage_dec_ref.obj
 0005:000001c3       __79C7FC57_basetsd@h       00000001800781c3     manage_dec_ref.obj
 0005:000001c4       __D545DD43_guiddef@h       00000001800781c4     manage_dec_ref.obj
 0005:000001c5       __D5DDFBF3_winnt@h         00000001800781c5     manage_dec_ref.obj
 0005:000001c6       __439612F0_processthreadsapi@h 00000001800781c6     manage_dec_ref.obj
 0005:000001c7       __5733279A_memoryapi@h     00000001800781c7     manage_dec_ref.obj
 0005:000001c8       __D4435474_winerror@h      00000001800781c8     manage_dec_ref.obj
 0005:000001c9       __B3ED30D4_winbase@h       00000001800781c9     manage_dec_ref.obj
 0005:000001ca       __DB057BA3_winuser@h       00000001800781ca     manage_dec_ref.obj
 0005:000001cb       __A7113148_winioctl@h      00000001800781cb     manage_dec_ref.obj
 0005:000001cc       __EC5BC72C_propidl@h       00000001800781cc     manage_dec_ref.obj
 0005:000001cd       __6DA674A0_oleauto@h       00000001800781cd     manage_dec_ref.obj
 0005:000001ce       __A118E6DC_stralign@h      00000001800781ce     manage_dec_ref.obj
 0005:000001cf       __E2B48F07_timeb@h         00000001800781cf     manage_dec_ref.obj
 0005:000001d0       __755F7121_decoder_context@h 00000001800781d0     manage_dec_ref.obj
 0005:000001d1       __8030770D_manage_dec_ref@cpp 00000001800781d1     manage_dec_ref.obj
 0005:000001d2       __741AE07E_corecrt_math@h  00000001800781d2     memmgr_nal_unit.obj
 0005:000001d3       __1FEB9909_corecrt_memcpy_s@h 00000001800781d3     memmgr_nal_unit.obj
 0005:000001d4       __A751F051_corecrt_memory@h 00000001800781d4     memmgr_nal_unit.obj
 0005:000001d5       __9200769A_corecrt_wstring@h 00000001800781d5     memmgr_nal_unit.obj
 0005:000001d6       __32E5F013_string@h        00000001800781d6     memmgr_nal_unit.obj
 0005:000001d7       __52E83662_macros@h        00000001800781d7     memmgr_nal_unit.obj
 0005:000001d8       __864C4808_wels_common_basis@h 00000001800781d8     memmgr_nal_unit.obj
 0005:000001d9       __451F0960_golomb_common@h 00000001800781d9     memmgr_nal_unit.obj
 0005:000001da       __859791EB_memmgr_nal_unit@cpp 00000001800781da     memmgr_nal_unit.obj
 0005:000001db       __741AE07E_corecrt_math@h  00000001800781db     mv_pred.obj
 0005:000001dc       __1FEB9909_corecrt_memcpy_s@h 00000001800781dc     mv_pred.obj
 0005:000001dd       __A751F051_corecrt_memory@h 00000001800781dd     mv_pred.obj
 0005:000001de       __9200769A_corecrt_wstring@h 00000001800781de     mv_pred.obj
 0005:000001df       __32E5F013_string@h        00000001800781df     mv_pred.obj
 0005:000001e0       __52E83662_macros@h        00000001800781e0     mv_pred.obj
 0005:000001e1       __864C4808_wels_common_basis@h 00000001800781e1     mv_pred.obj
 0005:000001e2       __451F0960_golomb_common@h 00000001800781e2     mv_pred.obj
 0005:000001e3       __BAD1AAB0_mv_pred@cpp     00000001800781e3     mv_pred.obj
 0005:000001e4       __741AE07E_corecrt_math@h  00000001800781e4     parse_mb_syn_cabac.obj
 0005:000001e5       __1FEB9909_corecrt_memcpy_s@h 00000001800781e5     parse_mb_syn_cabac.obj
 0005:000001e6       __A751F051_corecrt_memory@h 00000001800781e6     parse_mb_syn_cabac.obj
 0005:000001e7       __9200769A_corecrt_wstring@h 00000001800781e7     parse_mb_syn_cabac.obj
 0005:000001e8       __32E5F013_string@h        00000001800781e8     parse_mb_syn_cabac.obj
 0005:000001e9       __52E83662_macros@h        00000001800781e9     parse_mb_syn_cabac.obj
 0005:000001ea       __864C4808_wels_common_basis@h 00000001800781ea     parse_mb_syn_cabac.obj
 0005:000001eb       __451F0960_golomb_common@h 00000001800781eb     parse_mb_syn_cabac.obj
 0005:000001ec       __DC256DA8_dec_golomb@h    00000001800781ec     parse_mb_syn_cabac.obj
 0005:000001ed       __DF0DFBA6_vlc_decoder@h   00000001800781ed     parse_mb_syn_cabac.obj
 0005:000001ee       __B49664B7_stdlib@h        00000001800781ee     parse_mb_syn_cabac.obj
 0005:000001ef       __A2143F22_corecrt_stdio_config@h 00000001800781ef     parse_mb_syn_cabac.obj
 0005:000001f0       __829E1958_corecrt_wstdio@h 00000001800781f0     parse_mb_syn_cabac.obj
 0005:000001f1       __6DFAE8B8_stdio@h         00000001800781f1     parse_mb_syn_cabac.obj
 0005:000001f2       __1157D6BA_corecrt_wtime@h 00000001800781f2     parse_mb_syn_cabac.obj
 0005:000001f3       __A0B61CF9_time@h          00000001800781f3     parse_mb_syn_cabac.obj
 0005:000001f4       __B2D2BA86_ctype@h         00000001800781f4     parse_mb_syn_cabac.obj
 0005:000001f5       __79C7FC57_basetsd@h       00000001800781f5     parse_mb_syn_cabac.obj
 0005:000001f6       __D545DD43_guiddef@h       00000001800781f6     parse_mb_syn_cabac.obj
 0005:000001f7       __D5DDFBF3_winnt@h         00000001800781f7     parse_mb_syn_cabac.obj
 0005:000001f8       __439612F0_processthreadsapi@h 00000001800781f8     parse_mb_syn_cabac.obj
 0005:000001f9       __5733279A_memoryapi@h     00000001800781f9     parse_mb_syn_cabac.obj
 0005:000001fa       __D4435474_winerror@h      00000001800781fa     parse_mb_syn_cabac.obj
 0005:000001fb       __B3ED30D4_winbase@h       00000001800781fb     parse_mb_syn_cabac.obj
 0005:000001fc       __DB057BA3_winuser@h       00000001800781fc     parse_mb_syn_cabac.obj
 0005:000001fd       __A7113148_winioctl@h      00000001800781fd     parse_mb_syn_cabac.obj
 0005:000001fe       __EC5BC72C_propidl@h       00000001800781fe     parse_mb_syn_cabac.obj
 0005:000001ff       __6DA674A0_oleauto@h       00000001800781ff     parse_mb_syn_cabac.obj
 0005:00000200       __A118E6DC_stralign@h      0000000180078200     parse_mb_syn_cabac.obj
 0005:00000201       __E2B48F07_timeb@h         0000000180078201     parse_mb_syn_cabac.obj
 0005:00000202       __755F7121_decoder_context@h 0000000180078202     parse_mb_syn_cabac.obj
 0005:00000203       __A35F8D38_parse_mb_syn_cabac@cpp 0000000180078203     parse_mb_syn_cabac.obj
 0005:00000204       __741AE07E_corecrt_math@h  0000000180078204     parse_mb_syn_cavlc.obj
 0005:00000205       __1FEB9909_corecrt_memcpy_s@h 0000000180078205     parse_mb_syn_cavlc.obj
 0005:00000206       __A751F051_corecrt_memory@h 0000000180078206     parse_mb_syn_cavlc.obj
 0005:00000207       __9200769A_corecrt_wstring@h 0000000180078207     parse_mb_syn_cavlc.obj
 0005:00000208       __32E5F013_string@h        0000000180078208     parse_mb_syn_cavlc.obj
 0005:00000209       __52E83662_macros@h        0000000180078209     parse_mb_syn_cavlc.obj
 0005:0000020a       __864C4808_wels_common_basis@h 000000018007820a     parse_mb_syn_cavlc.obj
 0005:0000020b       __451F0960_golomb_common@h 000000018007820b     parse_mb_syn_cavlc.obj
 0005:0000020c       __DC256DA8_dec_golomb@h    000000018007820c     parse_mb_syn_cavlc.obj
 0005:0000020d       __DF0DFBA6_vlc_decoder@h   000000018007820d     parse_mb_syn_cavlc.obj
 0005:0000020e       __B49664B7_stdlib@h        000000018007820e     parse_mb_syn_cavlc.obj
 0005:0000020f       __A2143F22_corecrt_stdio_config@h 000000018007820f     parse_mb_syn_cavlc.obj
 0005:00000210       __829E1958_corecrt_wstdio@h 0000000180078210     parse_mb_syn_cavlc.obj
 0005:00000211       __6DFAE8B8_stdio@h         0000000180078211     parse_mb_syn_cavlc.obj
 0005:00000212       __1157D6BA_corecrt_wtime@h 0000000180078212     parse_mb_syn_cavlc.obj
 0005:00000213       __A0B61CF9_time@h          0000000180078213     parse_mb_syn_cavlc.obj
 0005:00000214       __B2D2BA86_ctype@h         0000000180078214     parse_mb_syn_cavlc.obj
 0005:00000215       __79C7FC57_basetsd@h       0000000180078215     parse_mb_syn_cavlc.obj
 0005:00000216       __D545DD43_guiddef@h       0000000180078216     parse_mb_syn_cavlc.obj
 0005:00000217       __D5DDFBF3_winnt@h         0000000180078217     parse_mb_syn_cavlc.obj
 0005:00000218       __439612F0_processthreadsapi@h 0000000180078218     parse_mb_syn_cavlc.obj
 0005:00000219       __5733279A_memoryapi@h     0000000180078219     parse_mb_syn_cavlc.obj
 0005:0000021a       __D4435474_winerror@h      000000018007821a     parse_mb_syn_cavlc.obj
 0005:0000021b       __B3ED30D4_winbase@h       000000018007821b     parse_mb_syn_cavlc.obj
 0005:0000021c       __DB057BA3_winuser@h       000000018007821c     parse_mb_syn_cavlc.obj
 0005:0000021d       __A7113148_winioctl@h      000000018007821d     parse_mb_syn_cavlc.obj
 0005:0000021e       __EC5BC72C_propidl@h       000000018007821e     parse_mb_syn_cavlc.obj
 0005:0000021f       __6DA674A0_oleauto@h       000000018007821f     parse_mb_syn_cavlc.obj
 0005:00000220       __A118E6DC_stralign@h      0000000180078220     parse_mb_syn_cavlc.obj
 0005:00000221       __E2B48F07_timeb@h         0000000180078221     parse_mb_syn_cavlc.obj
 0005:00000222       __755F7121_decoder_context@h 0000000180078222     parse_mb_syn_cavlc.obj
 0005:00000223       __8C50263B_parse_mb_syn_cavlc@cpp 0000000180078223     parse_mb_syn_cavlc.obj
 0005:00000224       __741AE07E_corecrt_math@h  0000000180078224     pic_queue.obj
 0005:00000225       __1FEB9909_corecrt_memcpy_s@h 0000000180078225     pic_queue.obj
 0005:00000226       __A751F051_corecrt_memory@h 0000000180078226     pic_queue.obj
 0005:00000227       __9200769A_corecrt_wstring@h 0000000180078227     pic_queue.obj
 0005:00000228       __32E5F013_string@h        0000000180078228     pic_queue.obj
 0005:00000229       __52E83662_macros@h        0000000180078229     pic_queue.obj
 0005:0000022a       __864C4808_wels_common_basis@h 000000018007822a     pic_queue.obj
 0005:0000022b       __451F0960_golomb_common@h 000000018007822b     pic_queue.obj
 0005:0000022c       __DC256DA8_dec_golomb@h    000000018007822c     pic_queue.obj
 0005:0000022d       __DF0DFBA6_vlc_decoder@h   000000018007822d     pic_queue.obj
 0005:0000022e       __B49664B7_stdlib@h        000000018007822e     pic_queue.obj
 0005:0000022f       __A2143F22_corecrt_stdio_config@h 000000018007822f     pic_queue.obj
 0005:00000230       __829E1958_corecrt_wstdio@h 0000000180078230     pic_queue.obj
 0005:00000231       __6DFAE8B8_stdio@h         0000000180078231     pic_queue.obj
 0005:00000232       __1157D6BA_corecrt_wtime@h 0000000180078232     pic_queue.obj
 0005:00000233       __A0B61CF9_time@h          0000000180078233     pic_queue.obj
 0005:00000234       __B2D2BA86_ctype@h         0000000180078234     pic_queue.obj
 0005:00000235       __79C7FC57_basetsd@h       0000000180078235     pic_queue.obj
 0005:00000236       __D545DD43_guiddef@h       0000000180078236     pic_queue.obj
 0005:00000237       __D5DDFBF3_winnt@h         0000000180078237     pic_queue.obj
 0005:00000238       __439612F0_processthreadsapi@h 0000000180078238     pic_queue.obj
 0005:00000239       __5733279A_memoryapi@h     0000000180078239     pic_queue.obj
 0005:0000023a       __D4435474_winerror@h      000000018007823a     pic_queue.obj
 0005:0000023b       __B3ED30D4_winbase@h       000000018007823b     pic_queue.obj
 0005:0000023c       __DB057BA3_winuser@h       000000018007823c     pic_queue.obj
 0005:0000023d       __A7113148_winioctl@h      000000018007823d     pic_queue.obj
 0005:0000023e       __EC5BC72C_propidl@h       000000018007823e     pic_queue.obj
 0005:0000023f       __6DA674A0_oleauto@h       000000018007823f     pic_queue.obj
 0005:00000240       __A118E6DC_stralign@h      0000000180078240     pic_queue.obj
 0005:00000241       __E2B48F07_timeb@h         0000000180078241     pic_queue.obj
 0005:00000242       __755F7121_decoder_context@h 0000000180078242     pic_queue.obj
 0005:00000243       __83870D8C_pic_queue@cpp   0000000180078243     pic_queue.obj
 0005:00000244       __741AE07E_corecrt_math@h  0000000180078244     rec_mb.obj
 0005:00000245       __1FEB9909_corecrt_memcpy_s@h 0000000180078245     rec_mb.obj
 0005:00000246       __A751F051_corecrt_memory@h 0000000180078246     rec_mb.obj
 0005:00000247       __9200769A_corecrt_wstring@h 0000000180078247     rec_mb.obj
 0005:00000248       __32E5F013_string@h        0000000180078248     rec_mb.obj
 0005:00000249       __52E83662_macros@h        0000000180078249     rec_mb.obj
 0005:0000024a       __864C4808_wels_common_basis@h 000000018007824a     rec_mb.obj
 0005:0000024b       __451F0960_golomb_common@h 000000018007824b     rec_mb.obj
 0005:0000024c       __DC256DA8_dec_golomb@h    000000018007824c     rec_mb.obj
 0005:0000024d       __DF0DFBA6_vlc_decoder@h   000000018007824d     rec_mb.obj
 0005:0000024e       __B49664B7_stdlib@h        000000018007824e     rec_mb.obj
 0005:0000024f       __A2143F22_corecrt_stdio_config@h 000000018007824f     rec_mb.obj
 0005:00000250       __829E1958_corecrt_wstdio@h 0000000180078250     rec_mb.obj
 0005:00000251       __6DFAE8B8_stdio@h         0000000180078251     rec_mb.obj
 0005:00000252       __1157D6BA_corecrt_wtime@h 0000000180078252     rec_mb.obj
 0005:00000253       __A0B61CF9_time@h          0000000180078253     rec_mb.obj
 0005:00000254       __B2D2BA86_ctype@h         0000000180078254     rec_mb.obj
 0005:00000255       __79C7FC57_basetsd@h       0000000180078255     rec_mb.obj
 0005:00000256       __D545DD43_guiddef@h       0000000180078256     rec_mb.obj
 0005:00000257       __D5DDFBF3_winnt@h         0000000180078257     rec_mb.obj
 0005:00000258       __439612F0_processthreadsapi@h 0000000180078258     rec_mb.obj
 0005:00000259       __5733279A_memoryapi@h     0000000180078259     rec_mb.obj
 0005:0000025a       __D4435474_winerror@h      000000018007825a     rec_mb.obj
 0005:0000025b       __B3ED30D4_winbase@h       000000018007825b     rec_mb.obj
 0005:0000025c       __DB057BA3_winuser@h       000000018007825c     rec_mb.obj
 0005:0000025d       __A7113148_winioctl@h      000000018007825d     rec_mb.obj
 0005:0000025e       __EC5BC72C_propidl@h       000000018007825e     rec_mb.obj
 0005:0000025f       __6DA674A0_oleauto@h       000000018007825f     rec_mb.obj
 0005:00000260       __A118E6DC_stralign@h      0000000180078260     rec_mb.obj
 0005:00000261       __E2B48F07_timeb@h         0000000180078261     rec_mb.obj
 0005:00000262       __755F7121_decoder_context@h 0000000180078262     rec_mb.obj
 0005:00000263       __04479514_rec_mb@cpp      0000000180078263     rec_mb.obj
 0005:00000264       __670FD895_codec_api@h     0000000180078264     welsDecoderExt.obj
 0005:00000265       __741AE07E_corecrt_math@h  0000000180078265     welsDecoderExt.obj
 0005:00000266       __1FEB9909_corecrt_memcpy_s@h 0000000180078266     welsDecoderExt.obj
 0005:00000267       __A751F051_corecrt_memory@h 0000000180078267     welsDecoderExt.obj
 0005:00000268       __9200769A_corecrt_wstring@h 0000000180078268     welsDecoderExt.obj
 0005:00000269       __32E5F013_string@h        0000000180078269     welsDecoderExt.obj
 0005:0000026a       __52E83662_macros@h        000000018007826a     welsDecoderExt.obj
 0005:0000026b       __864C4808_wels_common_basis@h 000000018007826b     welsDecoderExt.obj
 0005:0000026c       __451F0960_golomb_common@h 000000018007826c     welsDecoderExt.obj
 0005:0000026d       __DC256DA8_dec_golomb@h    000000018007826d     welsDecoderExt.obj
 0005:0000026e       __DF0DFBA6_vlc_decoder@h   000000018007826e     welsDecoderExt.obj
 0005:0000026f       __B49664B7_stdlib@h        000000018007826f     welsDecoderExt.obj
 0005:00000270       __A2143F22_corecrt_stdio_config@h 0000000180078270     welsDecoderExt.obj
 0005:00000271       __829E1958_corecrt_wstdio@h 0000000180078271     welsDecoderExt.obj
 0005:00000272       __6DFAE8B8_stdio@h         0000000180078272     welsDecoderExt.obj
 0005:00000273       __1157D6BA_corecrt_wtime@h 0000000180078273     welsDecoderExt.obj
 0005:00000274       __A0B61CF9_time@h          0000000180078274     welsDecoderExt.obj
 0005:00000275       __B2D2BA86_ctype@h         0000000180078275     welsDecoderExt.obj
 0005:00000276       __79C7FC57_basetsd@h       0000000180078276     welsDecoderExt.obj
 0005:00000277       __D545DD43_guiddef@h       0000000180078277     welsDecoderExt.obj
 0005:00000278       __D5DDFBF3_winnt@h         0000000180078278     welsDecoderExt.obj
 0005:00000279       __439612F0_processthreadsapi@h 0000000180078279     welsDecoderExt.obj
 0005:0000027a       __5733279A_memoryapi@h     000000018007827a     welsDecoderExt.obj
 0005:0000027b       __D4435474_winerror@h      000000018007827b     welsDecoderExt.obj
 0005:0000027c       __B3ED30D4_winbase@h       000000018007827c     welsDecoderExt.obj
 0005:0000027d       __DB057BA3_winuser@h       000000018007827d     welsDecoderExt.obj
 0005:0000027e       __A7113148_winioctl@h      000000018007827e     welsDecoderExt.obj
 0005:0000027f       __EC5BC72C_propidl@h       000000018007827f     welsDecoderExt.obj
 0005:00000280       __6DA674A0_oleauto@h       0000000180078280     welsDecoderExt.obj
 0005:00000281       __A118E6DC_stralign@h      0000000180078281     welsDecoderExt.obj
 0005:00000282       __E2B48F07_timeb@h         0000000180078282     welsDecoderExt.obj
 0005:00000283       __755F7121_decoder_context@h 0000000180078283     welsDecoderExt.obj
 0005:00000284       __0FC9870A_measure_time@h  0000000180078284     welsDecoderExt.obj
 0005:00000285       __D641FF4B_welsDecoderExt@h 0000000180078285     welsDecoderExt.obj
 0005:00000286       __0FEBF2C9_welsDecoderExt@cpp 0000000180078286     welsDecoderExt.obj
 0005:00000287       __A2143F22_corecrt_stdio_config@h 0000000180078287     AdaptiveQuantization.obj
 0005:00000288       __829E1958_corecrt_wstdio@h 0000000180078288     AdaptiveQuantization.obj
 0005:00000289       __6DFAE8B8_stdio@h         0000000180078289     AdaptiveQuantization.obj
 0005:0000028a       __B49664B7_stdlib@h        000000018007828a     AdaptiveQuantization.obj
 0005:0000028b       __1FEB9909_corecrt_memcpy_s@h 000000018007828b     AdaptiveQuantization.obj
 0005:0000028c       __A751F051_corecrt_memory@h 000000018007828c     AdaptiveQuantization.obj
 0005:0000028d       __9200769A_corecrt_wstring@h 000000018007828d     AdaptiveQuantization.obj
 0005:0000028e       __32E5F013_string@h        000000018007828e     AdaptiveQuantization.obj
 0005:0000028f       __59CED207_memory@h        000000018007828f     AdaptiveQuantization.obj
 0005:00000290       __34540648_IWelsVP@h       0000000180078290     AdaptiveQuantization.obj
 0005:00000291       __AB1180C1_util@h          0000000180078291     AdaptiveQuantization.obj
 0005:00000292       __B2D2BA86_ctype@h         0000000180078292     AdaptiveQuantization.obj
 0005:00000293       __79C7FC57_basetsd@h       0000000180078293     AdaptiveQuantization.obj
 0005:00000294       __D545DD43_guiddef@h       0000000180078294     AdaptiveQuantization.obj
 0005:00000295       __D5DDFBF3_winnt@h         0000000180078295     AdaptiveQuantization.obj
 0005:00000296       __439612F0_processthreadsapi@h 0000000180078296     AdaptiveQuantization.obj
 0005:00000297       __5733279A_memoryapi@h     0000000180078297     AdaptiveQuantization.obj
 0005:00000298       __D4435474_winerror@h      0000000180078298     AdaptiveQuantization.obj
 0005:00000299       __B3ED30D4_winbase@h       0000000180078299     AdaptiveQuantization.obj
 0005:0000029a       __DB057BA3_winuser@h       000000018007829a     AdaptiveQuantization.obj
 0005:0000029b       __A7113148_winioctl@h      000000018007829b     AdaptiveQuantization.obj
 0005:0000029c       __EC5BC72C_propidl@h       000000018007829c     AdaptiveQuantization.obj
 0005:0000029d       __6DA674A0_oleauto@h       000000018007829d     AdaptiveQuantization.obj
 0005:0000029e       __A118E6DC_stralign@h      000000018007829e     AdaptiveQuantization.obj
 0005:0000029f       __327826DD_WelsFrameWork@h 000000018007829f     AdaptiveQuantization.obj
 0005:000002a0       __741AE07E_corecrt_math@h  00000001800782a0     AdaptiveQuantization.obj
 0005:000002a1       __52E83662_macros@h        00000001800782a1     AdaptiveQuantization.obj
 0005:000002a2       __5AA84397_AdaptiveQuantization@h 00000001800782a2     AdaptiveQuantization.obj
 0005:000002a3       __A2BAB174_AdaptiveQuantization@cpp 00000001800782a3     AdaptiveQuantization.obj
 0005:000002a4       __B2D2BA86_ctype@h         00000001800782a4     OpenH264.obj
 0005:000002a5       __79C7FC57_basetsd@h       00000001800782a5     OpenH264.obj
 0005:000002a6       __1FEB9909_corecrt_memcpy_s@h 00000001800782a6     OpenH264.obj
 0005:000002a7       __A751F051_corecrt_memory@h 00000001800782a7     OpenH264.obj
 0005:000002a8       __9200769A_corecrt_wstring@h 00000001800782a8     OpenH264.obj
 0005:000002a9       __32E5F013_string@h        00000001800782a9     OpenH264.obj
 0005:000002aa       __D545DD43_guiddef@h       00000001800782aa     OpenH264.obj
 0005:000002ab       __D5DDFBF3_winnt@h         00000001800782ab     OpenH264.obj
 0005:000002ac       __439612F0_processthreadsapi@h 00000001800782ac     OpenH264.obj
 0005:000002ad       __5733279A_memoryapi@h     00000001800782ad     OpenH264.obj
 0005:000002ae       __D4435474_winerror@h      00000001800782ae     OpenH264.obj
 0005:000002af       __B3ED30D4_winbase@h       00000001800782af     OpenH264.obj
 0005:000002b0       __DB057BA3_winuser@h       00000001800782b0     OpenH264.obj
 0005:000002b1       __A118E6DC_stralign@h      00000001800782b1     OpenH264.obj
 0005:000002b2       __11720FE6_OpenH264@pch    00000001800782b2     stdafx.obj
 0005:000002b3       __B2D2BA86_ctype@h         00000001800782b3     stdafx.obj
 0005:000002b4       __79C7FC57_basetsd@h       00000001800782b4     stdafx.obj
 0005:000002b5       __1FEB9909_corecrt_memcpy_s@h 00000001800782b5     stdafx.obj
 0005:000002b6       __A751F051_corecrt_memory@h 00000001800782b6     stdafx.obj
 0005:000002b7       __9200769A_corecrt_wstring@h 00000001800782b7     stdafx.obj
 0005:000002b8       __32E5F013_string@h        00000001800782b8     stdafx.obj
 0005:000002b9       __D545DD43_guiddef@h       00000001800782b9     stdafx.obj
 0005:000002ba       __D5DDFBF3_winnt@h         00000001800782ba     stdafx.obj
 0005:000002bb       __439612F0_processthreadsapi@h 00000001800782bb     stdafx.obj
 0005:000002bc       __5733279A_memoryapi@h     00000001800782bc     stdafx.obj
 0005:000002bd       __D4435474_winerror@h      00000001800782bd     stdafx.obj
 0005:000002be       __B3ED30D4_winbase@h       00000001800782be     stdafx.obj
 0005:000002bf       __DB057BA3_winuser@h       00000001800782bf     stdafx.obj
 0005:000002c0       __A118E6DC_stralign@h      00000001800782c0     stdafx.obj
 0006:00000060       $R000000                   0000000180079060     * linker generated manifest res *
